(lp0
(I0
I1000
I32
F1.0
I-1
tp1
a(I1
I1000
I12
F0.995
I-1
tp2
a(I2
I1000
I14
F0.990025
I-1
tp3
a(I3
I1000
I13
F0.985074875
I-1
tp4
a(I4
I1000
I10
F0.9801495006250001
I-1
tp5
a(I5
I1000
I12
F0.9752487531218751
I-1
tp6
a(I6
I1000
I68
F0.9703725093562657
I-1
tp7
a(I7
I1000
I19
F0.9655206468094844
I-1
tp8
a(I8
I1000
I11
F0.960693043575437
I-1
tp9
a(I9
I1000
I11
F0.9558895783575597
I-1
tp10
a(I10
I1000
I35
F0.951110130465772
I-1
tp11
a(I11
I1000
I17
F0.9463545798134431
I-1
tp12
a(I12
I1000
I22
F0.9416228069143758
I-1
tp13
a(I13
I1000
I20
F0.936914692879804
I-1
tp14
a(I14
I1000
I30
F0.932230119415405
I-1
tp15
a(I15
I1000
I13
F0.927568968818328
I-1
tp16
a(I16
I1000
I10
F0.9229311239742363
I-1
tp17
a(I17
I1000
I41
F0.9183164683543651
I-1
tp18
a(I18
I1000
I18
F0.9137248860125933
I-1
tp19
a(I19
I1000
I12
F0.9091562615825303
I-1
tp20
a(I20
I1000
I48
F0.9046104802746177
I-1
tp21
a(I21
I1000
I14
F0.9000874278732446
I-1
tp22
a(I22
I1000
I23
F0.8955869907338784
I-1
tp23
a(I23
I1000
I17
F0.8911090557802089
I-1
tp24
a(I24
I1000
I16
F0.8866535105013079
I-1
tp25
a(I25
I1000
I16
F0.8822202429488014
I-1
tp26
a(I26
I1000
I25
F0.8778091417340574
I-1
tp27
a(I27
I1000
I21
F0.8734200960253872
I-1
tp28
a(I28
I1000
I31
F0.8690529955452603
I-1
tp29
a(I29
I1000
I14
F0.864707730567534
I-1
tp30
a(I30
I1000
I49
F0.8603841919146964
I-1
tp31
a(I31
I1000
I10
F0.8560822709551229
I-1
tp32
a(I32
I1000
I20
F0.8518018596003473
I-1
tp33
a(I33
I1000
I13
F0.8475428503023456
I-1
tp34
a(I34
I1000
I18
F0.8433051360508338
I-1
tp35
a(I35
I1000
I31
F0.8390886103705796
I-1
tp36
a(I36
I1000
I34
F0.8348931673187266
I-1
tp37
a(I37
I1000
I15
F0.830718701482133
I-1
tp38
a(I38
I1000
I12
F0.8265651079747224
I-1
tp39
a(I39
I1000
I11
F0.8224322824348488
I-1
tp40
a(I40
I1000
I23
F0.8183201210226745
I-1
tp41
a(I41
I1000
I26
F0.8142285204175611
I-1
tp42
a(I42
I1000
I27
F0.8101573778154733
I-1
tp43
a(I43
I1000
I10
F0.8061065909263959
I-1
tp44
a(I44
I1000
I18
F0.802076057971764
I-1
tp45
a(I45
I1000
I16
F0.7980656776819052
I-1
tp46
a(I46
I1000
I10
F0.7940753492934957
I-1
tp47
a(I47
I1000
I12
F0.7901049725470282
I-1
tp48
a(I48
I1000
I12
F0.786154447684293
I-1
tp49
a(I49
I1000
I20
F0.7822236754458716
I-1
tp50
a(I50
I1000
I15
F0.7783125570686422
I-1
tp51
a(I51
I1000
I28
F0.774420994283299
I-1
tp52
a(I52
I1000
I14
F0.7705488893118825
I-1
tp53
a(I53
I1000
I11
F0.7666961448653231
I-1
tp54
a(I54
I1000
I13
F0.7628626641409965
I-1
tp55
a(I55
I1000
I13
F0.7590483508202914
I-1
tp56
a(I56
I1000
I15
F0.7552531090661899
I-1
tp57
a(I57
I1000
I21
F0.751476843520859
I-1
tp58
a(I58
I1000
I23
F0.7477194593032547
I-1
tp59
a(I59
I1000
I21
F0.7439808620067384
I-1
tp60
a(I60
I1000
I26
F0.7402609576967047
I-1
tp61
a(I61
I1000
I9
F0.7365596529082212
I-1
tp62
a(I62
I1000
I12
F0.7328768546436801
I-1
tp63
a(I63
I1000
I16
F0.7292124703704618
I-1
tp64
a(I64
I1000
I11
F0.7255664080186095
I-1
tp65
a(I65
I1000
I13
F0.7219385759785164
I-1
tp66
a(I66
I1000
I12
F0.7183288830986239
I-1
tp67
a(I67
I1000
I18
F0.7147372386831308
I-1
tp68
a(I68
I1000
I15
F0.7111635524897151
I-1
tp69
a(I69
I1000
I10
F0.7076077347272665
I-1
tp70
a(I70
I1000
I12
F0.7040696960536301
I-1
tp71
a(I71
I1000
I18
F0.700549347573362
I-1
tp72
a(I72
I1000
I14
F0.6970466008354952
I-1
tp73
a(I73
I1000
I12
F0.6935613678313177
I-1
tp74
a(I74
I1000
I18
F0.6900935609921611
I-1
tp75
a(I75
I1000
I27
F0.6866430931872003
I-1
tp76
a(I76
I1000
I38
F0.6832098777212643
I-1
tp77
a(I77
I1000
I24
F0.679793828332658
I-1
tp78
a(I78
I1000
I13
F0.6763948591909947
I-1
tp79
a(I79
I1000
I12
F0.6730128848950397
I-1
tp80
a(I80
I1000
I17
F0.6696478204705646
I-1
tp81
a(I81
I1000
I15
F0.6662995813682118
I-1
tp82
a(I82
I1000
I18
F0.6629680834613707
I-1
tp83
a(I83
I1000
I14
F0.6596532430440638
I-1
tp84
a(I84
I1000
I19
F0.6563549768288435
I-1
tp85
a(I85
I1000
I16
F0.6530732019446992
I-1
tp86
a(I86
I1000
I9
F0.6498078359349757
I-1
tp87
a(I87
I1000
I14
F0.6465587967553008
I-1
tp88
a(I88
I1000
I21
F0.6433260027715243
I-1
tp89
a(I89
I1000
I20
F0.6401093727576667
I-1
tp90
a(I90
I1000
I9
F0.6369088258938783
I-1
tp91
a(I91
I1000
I10
F0.6337242817644089
I-1
tp92
a(I92
I1000
I17
F0.6305556603555869
I-1
tp93
a(I93
I1000
I20
F0.6274028820538089
I-1
tp94
a(I94
I1000
I16
F0.6242658676435399
I-1
tp95
a(I95
I1000
I14
F0.6211445383053221
I-1
tp96
a(I96
I1000
I13
F0.6180388156137955
I-1
tp97
a(I97
I1000
I12
F0.6149486215357265
I-1
tp98
a(I98
I1000
I46
F0.6118738784280479
I-1
tp99
a(I99
I1000
I22
F0.6088145090359076
I-1
tp100
a(I100
I1000
I10
F0.605770436490728
cnumpy.core.multiarray
scalar
p101
(cnumpy
dtype
p102
(S'f8'
p103
I0
I1
tp104
Rp105
(I3
S'<'
p106
NNNI-1
I-1
I0
tp107
bS'H\xe1z\x14\xae\xc72@'
p108
tp109
Rp110
tp111
a(I101
I1000
I14
F0.6027415843082744
g101
(g105
S'\x8f\xc2\xf5(\\\x8f2@'
p112
tp113
Rp114
tp115
a(I102
I1000
I10
F0.5997278763867331
g101
(g105
S'\x14\xaeG\xe1z\x942@'
p116
tp117
Rp118
tp119
a(I103
I1000
I36
F0.5967292370047994
g101
(g105
S'\n\xd7\xa3p=\x8a2@'
p120
tp121
Rp122
tp123
a(I104
I1000
I35
F0.5937455908197754
g101
(g105
S'\x85\xebQ\xb8\x1e\xc52@'
p124
tp125
Rp126
tp127
a(I105
I1000
I38
F0.5907768628656765
g101
(g105
S'\x85\xebQ\xb8\x1e\x053@'
p128
tp129
Rp130
tp131
a(I106
I1000
I21
F0.5878229785513481
g101
(g105
S'H\xe1z\x14\xaeG3@'
p132
tp133
Rp134
tp135
a(I107
I1000
I27
F0.5848838636585914
g101
(g105
S'\x8f\xc2\xf5(\\\xcf2@'
p136
tp137
Rp138
tp139
a(I108
I1000
I58
F0.5819594443402984
g101
(g105
S'\xa4p=\n\xd7\xe32@'
p140
tp141
Rp142
tp143
a(I109
I1000
I20
F0.579049647118597
g101
(g105
S'\\\x8f\xc2\xf5(\\3@'
p144
tp145
Rp146
tp147
a(I110
I1000
I28
F0.576154398883004
g101
(g105
S'33333s3@'
p148
tp149
Rp150
tp151
a(I111
I1000
I13
F0.573273626888589
g101
(g105
S'\xe1z\x14\xaeGa3@'
p152
tp153
Rp154
tp155
a(I112
I1000
I13
F0.570407258754146
g101
(g105
S'\xd7\xa3p=\nW3@'
p156
tp157
Rp158
tp159
a(I113
I1000
I19
F0.5675552224603753
g101
(g105
S'\x00\x00\x00\x00\x00@3@'
p160
tp161
Rp162
tp163
a(I114
I1000
I18
F0.5647174463480734
g101
(g105
S'=\n\xd7\xa3p=3@'
p164
tp165
Rp166
tp167
a(I115
I1000
I16
F0.561893859116333
g101
(g105
S'\x1f\x85\xebQ\xb8\x1e3@'
p168
tp169
Rp170
tp171
a(I116
I1000
I20
F0.5590843898207514
g101
(g105
S'fffff&3@'
p172
tp173
Rp174
tp175
a(I117
I1000
I18
F0.5562889678716476
g101
(g105
S'\x00\x00\x00\x00\x00@3@'
p176
tp177
Rp178
tp179
a(I118
I1000
I27
F0.5535075230322893
g101
(g105
S'\x85\xebQ\xb8\x1e\x053@'
p180
tp181
Rp182
tp183
a(I119
I1000
I28
F0.5507399854171279
g101
(g105
S'\\\x8f\xc2\xf5(\x1c3@'
p184
tp185
Rp186
tp187
a(I120
I1000
I23
F0.5479862854900422
g101
(g105
S'\x85\xebQ\xb8\x1eE3@'
p188
tp189
Rp190
tp191
a(I121
I1000
I19
F0.545246354062592
g101
(g105
S'\x85\xebQ\xb8\x1e\x053@'
p192
tp193
Rp194
tp195
a(I122
I1000
I30
F0.5425201222922791
g101
(g105
S'R\xb8\x1e\x85\xeb\x113@'
p196
tp197
Rp198
tp199
a(I123
I1000
I12
F0.5398075216808177
g101
(g105
S'\xa4p=\n\xd7#3@'
p200
tp201
Rp202
tp203
a(I124
I1000
I22
F0.5371084840724136
g101
(g105
S'\xd7\xa3p=\n\x173@'
p204
tp205
Rp206
tp207
a(I125
I1000
I27
F0.5344229416520515
g101
(g105
S'fffff&3@'
p208
tp209
Rp210
tp211
a(I126
I1000
I26
F0.5317508269437913
g101
(g105
S'\xc3\xf5(\\\x8fB3@'
p212
tp213
Rp214
tp215
a(I127
I1000
I12
F0.5290920728090723
g101
(g105
S'\x85\xebQ\xb8\x1eE3@'
p216
tp217
Rp218
tp219
a(I128
I1000
I40
F0.526446612445027
g101
(g105
S'\xaeG\xe1z\x14.3@'
p220
tp221
Rp222
tp223
a(I129
I1000
I54
F0.5238143793828018
g101
(g105
S'\x85\xebQ\xb8\x1eE3@'
p224
tp225
Rp226
tp227
a(I130
I1000
I15
F0.5211953074858878
g101
(g105
S'\xecQ\xb8\x1e\x85\xab3@'
p228
tp229
Rp230
tp231
a(I131
I1000
I32
F0.5185893309484584
g101
(g105
S'\x14\xaeG\xe1zT3@'
p232
tp233
Rp234
tp235
a(I132
I1000
I38
F0.5159963842937161
g101
(g105
S'\xcd\xcc\xcc\xcc\xcc\x8c3@'
p236
tp237
Rp238
tp239
a(I133
I1000
I36
F0.5134164023722475
g101
(g105
S'{\x14\xaeG\xe1\xba3@'
p240
tp241
Rp242
tp243
a(I134
I1000
I65
F0.5108493203603862
g101
(g105
S'\xf6(\\\x8f\xc2\xf53@'
p244
tp245
Rp246
tp247
a(I135
I1000
I57
F0.5082950737585843
g101
(g105
S'\xaeG\xe1z\x14n4@'
p248
tp249
Rp250
tp251
a(I136
I1000
I35
F0.5057535983897914
g101
(g105
S'q=\n\xd7\xa3\xb04@'
p252
tp253
Rp254
tp255
a(I137
I1000
I88
F0.5032248303978424
g101
(g105
S'33333\xb34@'
p256
tp257
Rp258
tp259
a(I138
I1000
I53
F0.5007087062458532
g101
(g105
S'\xaeG\xe1z\x14n5@'
p260
tp261
Rp262
tp263
a(I139
I1000
I62
F0.4982051627146239
g101
(g105
S'\xd7\xa3p=\n\xd75@'
p264
tp265
Rp266
tp267
a(I140
I1000
I99
F0.49571413690105076
g101
(g105
S'\x9a\x99\x99\x99\x99Y6@'
p268
tp269
Rp270
tp271
a(I141
I1000
I20
F0.4932355662165455
g101
(g105
S'\\\x8f\xc2\xf5(\x1c7@'
p272
tp273
Rp274
tp275
a(I142
I1000
I32
F0.4907693883854628
g101
(g105
S'\xcd\xcc\xcc\xcc\xcc\x0c7@'
p276
tp277
Rp278
tp279
a(I143
I1000
I26
F0.4883155414435355
g101
(g105
S'\x9a\x99\x99\x99\x99\x197@'
p280
tp281
Rp282
tp283
a(I144
I1000
I80
F0.4858739637363178
g101
(g105
S'\xc3\xf5(\\\x8fB7@'
p284
tp285
Rp286
tp287
a(I145
I1000
I39
F0.4834445939176362
g101
(g105
S'\xe1z\x14\xaeG\xe17@'
p288
tp289
Rp290
tp291
a(I146
I1000
I60
F0.48102737094804804
g101
(g105
S'\\\x8f\xc2\xf5(\x1c8@'
p292
tp293
Rp294
tp295
a(I147
I1000
I120
F0.4786222340933078
g101
(g105
S'\\\x8f\xc2\xf5(\x9c8@'
p296
tp297
Rp298
tp299
a(I148
I1000
I96
F0.47622912292284125
g101
(g105
S'q=\n\xd7\xa3\xb09@'
p300
tp301
Rp302
tp303
a(I149
I1000
I18
F0.47384797730822703
g101
(g105
S'H\xe1z\x14\xae\x87:@'
p304
tp305
Rp306
tp307
a(I150
I1000
I18
F0.4714787374216859
g101
(g105
S'\xc3\xf5(\\\x8f\x82:@'
p308
tp309
Rp310
tp311
a(I151
I1000
I47
F0.4691213437345775
g101
(g105
S'\n\xd7\xa3p=\x8a:@'
p312
tp313
Rp314
tp315
a(I152
I1000
I37
F0.4667757370159046
g101
(g105
S'{\x14\xaeG\xe1\xba:@'
p316
tp317
Rp318
tp319
a(I153
I1000
I33
F0.4644418583308251
g101
(g105
S'\xf6(\\\x8f\xc2\xf5:@'
p320
tp321
Rp322
tp323
a(I154
I1000
I35
F0.46211964903917097
g101
(g105
S'\xaeG\xe1z\x14.;@'
p324
tp325
Rp326
tp327
a(I155
I1000
I35
F0.4598090507939751
g101
(g105
S'ffffff;@'
p328
tp329
Rp330
tp331
a(I156
I1000
I25
F0.4575100055400052
g101
(g105
S'\x1f\x85\xebQ\xb8\x9e;@'
p332
tp333
Rp334
tp335
a(I157
I1000
I71
F0.45522245551230517
g101
(g105
S'\xb8\x1e\x85\xebQ\xb8;@'
p336
tp337
Rp338
tp339
a(I158
I1000
I62
F0.45294634323474364
g101
(g105
S'\xb8\x1e\x85\xebQ8<@'
p340
tp341
Rp342
tp343
a(I159
I1000
I22
F0.45068161151856995
g101
(g105
S'\\\x8f\xc2\xf5(\x9c<@'
p344
tp345
Rp346
tp347
a(I160
I1000
I124
F0.4484282034609771
g101
(g105
S'\x1f\x85\xebQ\xb8\x9e<@'
p348
tp349
Rp350
tp351
a(I161
I1000
I71
F0.4461860624436722
g101
(g105
S'\x9a\x99\x99\x99\x99\x99=@'
p352
tp353
Rp354
tp355
a(I162
I1000
I100
F0.4439551321314538
g101
(g105
S'\xb8\x1e\x85\xebQ8>@'
p356
tp357
Rp358
tp359
a(I163
I1000
I41
F0.44173535647079654
g101
(g105
S'\x9a\x99\x99\x99\x99\x19?@'
p360
tp361
Rp362
tp363
a(I164
I1000
I42
F0.43952667968844256
g101
(g105
S'\x9a\x99\x99\x99\x99Y?@'
p364
tp365
Rp366
tp367
a(I165
I1000
I59
F0.43732904629000036
g101
(g105
S')\\\x8f\xc2\xf5\xa8?@'
p368
tp369
Rp370
tp371
a(I166
I1000
I49
F0.43514240105855034
g101
(g105
S'\x8f\xc2\xf5(\\\x0f@@'
p372
tp373
Rp374
tp375
a(I167
I1000
I82
F0.4329666890532576
g101
(g105
S'\x1f\x85\xebQ\xb8>@@'
p376
tp377
Rp378
tp379
a(I168
I1000
I38
F0.4308018556079913
g101
(g105
S'q=\n\xd7\xa3\x90@@'
p380
tp381
Rp382
tp383
a(I169
I1000
I31
F0.42864784632995134
g101
(g105
S'\xaeG\xe1z\x14\xae@@'
p384
tp385
Rp386
tp387
a(I170
I1000
I54
F0.42650460709830157
g101
(g105
S')\\\x8f\xc2\xf5\xc8@@'
p388
tp389
Rp390
tp391
a(I171
I1000
I55
F0.4243720840628101
g101
(g105
S'\x1f\x85\xebQ\xb8\xfe@@'
p392
tp393
Rp394
tp395
a(I172
I1000
I64
F0.42225022364249604
g101
(g105
S'\xaeG\xe1z\x14.A@'
p396
tp397
Rp398
tp399
a(I173
I1000
I107
F0.42013897252428356
g101
(g105
S'\xaeG\xe1z\x14nA@'
p400
tp401
Rp402
tp403
a(I174
I1000
I53
F0.4180382776616621
g101
(g105
S'H\xe1z\x14\xae\xe7A@'
p404
tp405
Rp406
tp407
a(I175
I1000
I50
F0.41594808627335383
g101
(g105
S'\x14\xaeG\xe1z\x14B@'
p408
tp409
Rp410
tp411
a(I176
I1000
I39
F0.41386834584198706
g101
(g105
S'R\xb8\x1e\x85\xeb1B@'
p412
tp413
Rp414
tp415
a(I177
I1000
I48
F0.41179900411277715
g101
(g105
S'333333B@'
p416
tp417
Rp418
tp419
a(I178
I1000
I125
F0.40974000909221325
g101
(g105
S'R\xb8\x1e\x85\xebQB@'
p420
tp421
Rp422
tp423
a(I179
I1000
I72
F0.40769130904675216
g101
(g105
S'\xe1z\x14\xaeG\xe1B@'
p424
tp425
Rp426
tp427
a(I180
I1000
I97
F0.4056528525015184
g101
(g105
S'\xaeG\xe1z\x14.C@'
p428
tp429
Rp430
tp431
a(I181
I1000
I91
F0.4036245882390108
g101
(g105
S'\x14\xaeG\xe1z\x94C@'
p432
tp433
Rp434
tp435
a(I182
I1000
I50
F0.40160646529781574
g101
(g105
S'\xf6(\\\x8f\xc2\xf5C@'
p436
tp437
Rp438
tp439
a(I183
I1000
I74
F0.3995984329713267
g101
(g105
S'\x1f\x85\xebQ\xb8\x1eD@'
p440
tp441
Rp442
tp443
a(I184
I1000
I85
F0.39760044080647006
g101
(g105
S'\xecQ\xb8\x1e\x85kD@'
p444
tp445
Rp446
tp447
a(I185
I1000
I60
F0.3956124386024377
g101
(g105
S'\x00\x00\x00\x00\x00\xc0D@'
p448
tp449
Rp450
tp451
a(I186
I1000
I68
F0.39363437640942556
g101
(g105
S'\xb8\x1e\x85\xebQ\xf8D@'
p452
tp453
Rp454
tp455
a(I187
I1000
I104
F0.39166620452737844
g101
(g105
S'\xa4p=\n\xd7CE@'
p456
tp457
Rp458
tp459
a(I188
I1000
I83
F0.38970787350474156
g101
(g105
S'\xd7\xa3p=\n\xb7E@'
p460
tp461
Rp462
tp463
a(I189
I1000
I92
F0.38775933413721786
g101
(g105
S'fffff\x06F@'
p464
tp465
Rp466
tp467
a(I190
I1000
I76
F0.3858205374665318
g101
(g105
S'\xc3\xf5(\\\x8fbF@'
p468
tp469
Rp470
tp471
a(I191
I1000
I58
F0.3838914347791991
g101
(g105
S'\xb8\x1e\x85\xebQ\xb8F@'
p472
tp473
Rp474
tp475
a(I192
I1000
I129
F0.3819719776053031
g101
(g105
S'\xf6(\\\x8f\xc2\xf5F@'
p476
tp477
Rp478
tp479
a(I193
I1000
I81
F0.3800621177172766
g101
(g105
S'\x85\xebQ\xb8\x1e\x85G@'
p480
tp481
Rp482
tp483
a(I194
I1000
I81
F0.37816180712869024
g101
(g105
S'33333\xd3G@'
p484
tp485
Rp486
tp487
a(I195
I1000
I62
F0.3762709980930468
g101
(g105
S'fffff&H@'
p488
tp489
Rp490
tp491
a(I196
I1000
I112
F0.3743896431025816
g101
(g105
S'\xa4p=\n\xd7cH@'
p492
tp493
Rp494
tp495
a(I197
I1000
I113
F0.3725176948870687
g101
(g105
S'\xc3\xf5(\\\x8f\xe2H@'
p496
tp497
Rp498
tp499
a(I198
I1000
I92
F0.3706551064126334
g101
(g105
S'\xa4p=\n\xd7cI@'
p500
tp501
Rp502
tp503
a(I199
I1000
I66
F0.3688018308805702
g101
(g105
S'\x1f\x85\xebQ\xb8\x9eI@'
p504
tp505
Rp506
tp507
a(I200
I1000
I77
F0.36695782172616737
g101
(g105
S'\xd7\xa3p=\n\xd7I@'
p508
tp509
Rp510
tp511
a(I201
I1000
I233
F0.36512303261753654
g101
(g105
S'\xcd\xcc\xcc\xcc\xcc,J@'
p512
tp513
Rp514
tp515
a(I202
I1000
I61
F0.3632974174544489
g101
(g105
S'\x85\xebQ\xb8\x1eEK@'
p516
tp517
Rp518
tp519
a(I203
I1000
I157
F0.36148093036717666
g101
(g105
S'fffff\x86K@'
p520
tp521
Rp522
tp523
a(I204
I1000
I95
F0.3596735257153408
g101
(g105
S'\xe1z\x14\xaeG!L@'
p524
tp525
Rp526
tp527
a(I205
I1000
I34
F0.35787515808676407
g101
(g105
S'\xaeG\xe1z\x14nL@'
p528
tp529
Rp530
tp531
a(I206
I1000
I62
F0.35608578229633026
g101
(g105
S')\\\x8f\xc2\xf5hL@'
p532
tp533
Rp534
tp535
a(I207
I1000
I76
F0.3543053533848486
g101
(g105
S'=\n\xd7\xa3p\x9dL@'
p536
tp537
Rp538
tp539
a(I208
I1000
I124
F0.3525338266179243
g101
(g105
S'\\\x8f\xc2\xf5(\xdcL@'
p540
tp541
Rp542
tp543
a(I209
I1000
I15
F0.3507711574848347
g101
(g105
S'q=\n\xd7\xa30M@'
p544
tp545
Rp546
tp547
a(I210
I1000
I233
F0.3490173016974105
g101
(g105
S'\n\xd7\xa3p=*M@'
p548
tp549
Rp550
tp551
a(I211
I1000
I90
F0.3472722151889235
g101
(g105
S'q=\n\xd7\xa30N@'
p552
tp553
Rp554
tp555
a(I212
I1000
I116
F0.3455358541129789
g101
(g105
S'33333\x93N@'
p556
tp557
Rp558
tp559
a(I213
I1000
I146
F0.343808174842414
g101
(g105
S'\xd7\xa3p=\n\x17O@'
p560
tp561
Rp562
tp563
a(I214
I1000
I169
F0.3420891339682019
g101
(g105
S'\x9a\x99\x99\x99\x99\xb9O@'
p564
tp565
Rp566
tp567
a(I215
I1000
I178
F0.3403786882983609
g101
(g105
S'=\n\xd7\xa3p=P@'
p568
tp569
Rp570
tp571
a(I216
I1000
I30
F0.3386767948568691
g101
(g105
S'\x85\xebQ\xb8\x1e\xa5P@'
p572
tp573
Rp574
tp575
a(I217
I1000
I46
F0.3369834108825847
g101
(g105
S'\xecQ\xb8\x1e\x85\xabP@'
p576
tp577
Rp578
tp579
a(I218
I1000
I60
F0.3352984938281718
g101
(g105
S'=\n\xd7\xa3p\xbdP@'
p580
tp581
Rp582
tp583
a(I219
I1000
I66
F0.3336220013590309
g101
(g105
S'\xc3\xf5(\\\x8f\xd2P@'
p584
tp585
Rp586
tp587
a(I220
I1000
I66
F0.33195389135223574
g101
(g105
S'{\x14\xaeG\xe1\xeaP@'
p588
tp589
Rp590
tp591
a(I221
I1000
I91
F0.3302941218954746
g101
(g105
S'fffff\x06Q@'
p592
tp593
Rp594
tp595
a(I222
I1000
I87
F0.32864265128599723
g101
(g105
S'\x14\xaeG\xe1z4Q@'
p596
tp597
Rp598
tp599
a(I223
I1000
I154
F0.32699943802956727
g101
(g105
S')\\\x8f\xc2\xf5XQ@'
p600
tp601
Rp602
tp603
a(I224
I1000
I97
F0.32536444083941946
g101
(g105
S'\xa4p=\n\xd7\xb3Q@'
p604
tp605
Rp606
tp607
a(I225
I1000
I97
F0.3237376186352224
g101
(g105
S'\xa4p=\n\xd7\xe3Q@'
p608
tp609
Rp610
tp611
a(I226
I1000
I135
F0.32211893054204627
g101
(g105
S'q=\n\xd7\xa3\x10R@'
p612
tp613
Rp614
tp615
a(I227
I1000
I178
F0.320508335889336
g101
(g105
S'fffffVR@'
p616
tp617
Rp618
tp619
a(I228
I1000
I106
F0.31890579420988935
g101
(g105
S'q=\n\xd7\xa3\xc0R@'
p620
tp621
Rp622
tp623
a(I229
I1000
I163
F0.3173112652388399
g101
(g105
S'{\x14\xaeG\xe1\xeaR@'
p624
tp625
Rp626
tp627
a(I230
I1000
I94
F0.3157247089126457
g101
(g105
S'q=\n\xd7\xa30S@'
p628
tp629
Rp630
tp631
a(I231
I1000
I163
F0.3141460853680825
g101
(g105
S'33333cS@'
p632
tp633
Rp634
tp635
a(I232
I1000
I104
F0.31257535494124206
g101
(g105
S'\xd7\xa3p=\n\xb7S@'
p636
tp637
Rp638
tp639
a(I233
I1000
I103
F0.3110124781665358
g101
(g105
S'\xe1z\x14\xaeG\xe1S@'
p640
tp641
Rp642
tp643
a(I234
I1000
I112
F0.3094574157757031
g101
(g105
S'\\\x8f\xc2\xf5(\x0cT@'
p644
tp645
Rp646
tp647
a(I235
I1000
I113
F0.3079101286968246
g101
(g105
S'\n\xd7\xa3p=*T@'
p648
tp649
Rp650
tp651
a(I236
I1000
I95
F0.3063705780533405
g101
(g105
S'\xaeG\xe1z\x14NT@'
p652
tp653
Rp654
tp655
a(I237
I1000
I149
F0.3048387251630738
g101
(g105
S'\x14\xaeG\xe1ztT@'
p656
tp657
Rp658
tp659
a(I238
I1000
I175
F0.30331453153725846
g101
(g105
S'\xecQ\xb8\x1e\x85\x9bT@'
p660
tp661
Rp662
tp663
a(I239
I1000
I312
F0.30179795887957217
g101
(g105
S'\x9a\x99\x99\x99\x99\xe9T@'
p664
tp665
Rp666
tp667
a(I240
I1000
I168
F0.30028896908517433
g101
(g105
S'\x9a\x99\x99\x99\x99\x89U@'
p668
tp669
Rp670
tp671
a(I241
I1000
I92
F0.29878752423974847
g101
(g105
S'\xf6(\\\x8f\xc2\xb5U@'
p672
tp673
Rp674
tp675
a(I242
I1000
I98
F0.2972935866185497
g101
(g105
S'\xa4p=\n\xd7\xe3U@'
p676
tp677
Rp678
tp679
a(I243
I1000
I92
F0.29580711868545695
g101
(g105
S'\xaeG\xe1z\x14\x0eV@'
p680
tp681
Rp682
tp683
a(I244
I1000
I107
F0.2943280830920297
g101
(g105
S'\xb8\x1e\x85\xebQ8V@'
p684
tp685
Rp686
tp687
a(I245
I1000
I71
F0.2928564426765695
g101
(g105
S'\x9a\x99\x99\x99\x99IV@'
p688
tp689
Rp690
tp691
a(I246
I1000
I93
F0.29139216046318667
g101
(g105
S'\xaeG\xe1z\x14^V@'
p692
tp693
Rp694
tp695
a(I247
I1000
I73
F0.2899351996608707
g101
(g105
S'33333sV@'
p696
tp697
Rp698
tp699
a(I248
I1000
I85
F0.28848552366256636
g101
(g105
S'\x85\xebQ\xb8\x1eUV@'
p700
tp701
Rp702
tp703
a(I249
I1000
I103
F0.28704309604425354
g101
(g105
S'\xaeG\xe1z\x14NV@'
p704
tp705
Rp706
tp707
a(I250
I1000
I80
F0.2856078805640323
g101
(g105
S'\x14\xaeG\xe1z\x84V@'
p708
tp709
Rp710
tp711
a(I251
I1000
I121
F0.28417984116121214
g101
(g105
S'\\\x8f\xc2\xf5(\xacV@'
p712
tp713
Rp714
tp715
a(I252
I1000
I66
F0.2827589419554061
g101
(g105
S'\xecQ\xb8\x1e\x85\xdbV@'
p716
tp717
Rp718
tp719
a(I253
I1000
I33
F0.28134514724562903
g101
(g105
S'\xaeG\xe1z\x14\xeeV@'
p720
tp721
Rp722
tp723
a(I254
I1000
I138
F0.2799384215094009
g101
(g105
S'\xaeG\xe1z\x14\xeeV@'
p724
tp725
Rp726
tp727
a(I255
I1000
I124
F0.2785387294018539
g101
(g105
S'\x00\x00\x00\x00\x000W@'
p728
tp729
Rp730
tp731
a(I256
I1000
I134
F0.27714603575484464
g101
(g105
S')\\\x8f\xc2\xf5hW@'
p732
tp733
Rp734
tp735
a(I257
I1000
I126
F0.2757603055760704
g101
(g105
S'\x1f\x85\xebQ\xb8\xaeW@'
p736
tp737
Rp738
tp739
a(I258
I1000
I56
F0.27438150404819006
g101
(g105
S'R\xb8\x1e\x85\xeb\xd1W@'
p740
tp741
Rp742
tp743
a(I259
I1000
I92
F0.2730095965279491
g101
(g105
S'\xaeG\xe1z\x14\xceW@'
p744
tp745
Rp746
tp747
a(I260
I1000
I41
F0.27164454854530934
g101
(g105
S'{\x14\xaeG\xe1\xfaW@'
p748
tp749
Rp750
tp751
a(I261
I1000
I30
F0.27028632580258277
g101
(g105
S'\xf6(\\\x8f\xc2\xc5W@'
p752
tp753
Rp754
tp755
a(I262
I1000
I54
F0.26893489417356986
g101
(g105
S'\xecQ\xb8\x1e\x85\xabW@'
p756
tp757
Rp758
tp759
a(I263
I1000
I70
F0.267590219702702
g101
(g105
S'\xaeG\xe1z\x14\x8eW@'
p760
tp761
Rp762
tp763
a(I264
I1000
I68
F0.2662522686041885
g101
(g105
S'q=\n\xd7\xa3\xa0W@'
p764
tp765
Rp766
tp767
a(I265
I1000
I91
F0.2649210072611676
g101
(g105
S'\xe1z\x14\xaeG\xb1W@'
p768
tp769
Rp770
tp771
a(I266
I1000
I95
F0.26359640222486175
g101
(g105
S'\xf6(\\\x8f\xc2\xc5W@'
p772
tp773
Rp774
tp775
a(I267
I1000
I51
F0.26227842021373743
g101
(g105
S'33333\xe3W@'
p776
tp777
Rp778
tp779
a(I268
I1000
I81
F0.26096702811266875
g101
(g105
S'\x8f\xc2\xf5(\\\xcfW@'
p780
tp781
Rp782
tp783
a(I269
I1000
I100
F0.2596621929721054
g101
(g105
S'{\x14\xaeG\xe1\xeaW@'
p784
tp785
Rp786
tp787
a(I270
I1000
I16
F0.25836388200724486
g101
(g105
S'\xd7\xa3p=\n\x17X@'
p788
tp789
Rp790
tp791
a(I271
I1000
I165
F0.25707206259720866
g101
(g105
S'\x1f\x85\xebQ\xb8\xfeW@'
p792
tp793
Rp794
tp795
a(I272
I1000
I254
F0.2557867022842226
g101
(g105
S'\x85\xebQ\xb8\x1eEX@'
p796
tp797
Rp798
tp799
a(I273
I1000
I212
F0.2545077687728015
g101
(g105
S'\x1f\x85\xebQ\xb8\xbeX@'
p800
tp801
Rp802
tp803
a(I274
I1000
I119
F0.2532352299289375
g101
(g105
S'R\xb8\x1e\x85\xeb\x01Y@'
p804
tp805
Rp806
tp807
a(I275
I1000
I121
F0.2519690537792928
g101
(g105
S'\\\x8f\xc2\xf5(,Y@'
p808
tp809
Rp810
tp811
a(I276
I1000
I111
F0.25070920851039635
g101
(g105
S'\x9a\x99\x99\x99\x99YY@'
p812
tp813
Rp814
tp815
a(I277
I1000
I116
F0.24945566246784437
g101
(g105
S'H\xe1z\x14\xae\x87Y@'
p816
tp817
Rp818
tp819
a(I278
I1000
I146
F0.24820838415550514
g101
(g105
S'33333\xb3Y@'
p820
tp821
Rp822
tp823
a(I279
I1000
I189
F0.2469673422347276
g101
(g105
S'q=\n\xd7\xa3\xc0Y@'
p824
tp825
Rp826
tp827
a(I280
I1000
I137
F0.24573250552355397
g101
(g105
S'\xecQ\xb8\x1e\x85\x0bZ@'
p828
tp829
Rp830
tp831
a(I281
I1000
I143
F0.2445038429959362
g101
(g105
S'\x85\xebQ\xb8\x1e%Z@'
p832
tp833
Rp834
tp835
a(I282
I1000
I94
F0.24328132378095652
g101
(g105
S'fffffFZ@'
p836
tp837
Rp838
tp839
a(I283
I1000
I74
F0.24206491716205172
g101
(g105
S'\xc3\xf5(\\\x8fbZ@'
p840
tp841
Rp842
tp843
a(I284
I1000
I73
F0.24085459257624148
g101
(g105
S'\xc3\xf5(\\\x8fbZ@'
p844
tp845
Rp846
tp847
a(I285
I1000
I117
F0.23965031961336028
g101
(g105
S'{\x14\xaeG\xe1ZZ@'
p848
tp849
Rp850
tp851
a(I286
I1000
I113
F0.23845206801529348
g101
(g105
S'\x8f\xc2\xf5(\\\x7fZ@'
p852
tp853
Rp854
tp855
a(I287
I1000
I72
F0.237259807675217
g101
(g105
S'\\\x8f\xc2\xf5(\x9cZ@'
p856
tp857
Rp858
tp859
a(I288
I1000
I75
F0.23607350863684093
g101
(g105
S'H\xe1z\x14\xae\x87Z@'
p860
tp861
Rp862
tp863
a(I289
I1000
I84
F0.23489314109365672
g101
(g105
S'\xc3\xf5(\\\x8f\x82Z@'
p864
tp865
Rp866
tp867
a(I290
I1000
I85
F0.23371867538818844
g101
(g105
S'=\n\xd7\xa3p}Z@'
p868
tp869
Rp870
tp871
a(I291
I1000
I399
F0.2325500820112475
g101
(g105
S'33333\x83Z@'
p872
tp873
Rp874
tp875
a(I292
I1000
I158
F0.23138733160119127
g101
(g105
S'=\n\xd7\xa3p][@'
p876
tp877
Rp878
tp879
a(I293
I1000
I176
F0.2302303949431853
g101
(g105
S'\x00\x00\x00\x00\x00p[@'
p880
tp881
Rp882
tp883
a(I294
I1000
I190
F0.22907924296846938
g101
(g105
S'\xcd\xcc\xcc\xcc\xcc\xac[@'
p884
tp885
Rp886
tp887
a(I295
I1000
I110
F0.22793384675362702
g101
(g105
S'\xc3\xf5(\\\x8f\xf2[@'
p888
tp889
Rp890
tp891
a(I296
I1000
I114
F0.2267941775198589
g101
(g105
S'\xe1z\x14\xaeG\x11\\@'
p892
tp893
Rp894
tp895
a(I297
I1000
I307
F0.2256602066322596
g101
(g105
S'\xc3\xf5(\\\x8f\x12\\@'
p896
tp897
Rp898
tp899
a(I298
I1000
I181
F0.2245319055990983
g101
(g105
S'\x1f\x85\xebQ\xb8\x8e\\@'
p900
tp901
Rp902
tp903
a(I299
I1000
I181
F0.22340924607110282
g101
(g105
S'H\xe1z\x14\xae\xc7\\@'
p904
tp905
Rp906
tp907
a(I300
I1000
I146
F0.2222921998407473
g101
(g105
S'\xe1z\x14\xaeG\x11]@'
p908
tp909
Rp910
tp911
a(I301
I1000
I336
F0.22118073884154357
g101
(g105
S'=\n\xd7\xa3p=]@'
p912
tp913
Rp914
tp915
a(I302
I1000
I112
F0.22007483514733586
g101
(g105
S'\x8f\xc2\xf5(\\\x7f]@'
p916
tp917
Rp918
tp919
a(I303
I1000
I246
F0.21897446097159917
g101
(g105
S'\x00\x00\x00\x00\x00\xa0]@'
p920
tp921
Rp922
tp923
a(I304
I1000
I188
F0.21787958866674118
g101
(g105
S')\\\x8f\xc2\xf5\xd8]@'
p924
tp925
Rp926
tp927
a(I305
I1000
I183
F0.21679019072340747
g101
(g105
S'\x14\xaeG\xe1z\x14^@'
p928
tp929
Rp930
tp931
a(I306
I1000
I119
F0.21570623976979042
g101
(g105
S'\xa4p=\n\xd7s^@'
p932
tp933
Rp934
tp935
a(I307
I1000
I317
F0.21462770857094146
g101
(g105
S'\xb8\x1e\x85\xebQ\x98^@'
p936
tp937
Rp938
tp939
a(I308
I1000
I128
F0.21355457002808675
g101
(g105
S'\xc3\xf5(\\\x8f2_@'
p940
tp941
Rp942
tp943
a(I309
I1000
I122
F0.21248679717794633
g101
(g105
S'\x85\xebQ\xb8\x1e5_@'
p944
tp945
Rp946
tp947
a(I310
I1000
I89
F0.2114243631920566
g101
(g105
S'\x9a\x99\x99\x99\x99y_@'
p948
tp949
Rp950
tp951
a(I311
I1000
I92
F0.2103672413760963
g101
(g105
S'=\n\xd7\xa3p\x1d_@'
p952
tp953
Rp954
tp955
a(I312
I1000
I80
F0.20931540516921582
g101
(g105
S'\x1f\x85\xebQ\xb8\x1e_@'
p956
tp957
Rp958
tp959
a(I313
I1000
I101
F0.20826882814336975
g101
(g105
S'H\xe1z\x14\xae\x07_@'
p960
tp961
Rp962
tp963
a(I314
I1000
I56
F0.2072274840026529
g101
(g105
S'{\x14\xaeG\xe1\xea^@'
p964
tp965
Rp966
tp967
a(I315
I1000
I62
F0.20619134658263963
g101
(g105
S'\xc3\xf5(\\\x8f\xa2^@'
p968
tp969
Rp970
tp971
a(I316
I1000
I230
F0.20516038984972643
g101
(g105
S'\xb8\x1e\x85\xebQX^@'
p972
tp973
Rp974
tp975
a(I317
I1000
I381
F0.20413458790047778
g101
(g105
S'\xb8\x1e\x85\xebQ\xd8^@'
p976
tp977
Rp978
tp979
a(I318
I1000
I261
F0.2031139149609754
g101
(g105
S'\x1f\x85\xebQ\xb8\xae_@'
p980
tp981
Rp982
tp983
a(I319
I1000
I199
F0.20209834538617052
g101
(g105
S'H\xe1z\x14\xae\x17`@'
p984
tp985
Rp986
tp987
a(I320
I1000
I218
F0.20108785365923967
g101
(g105
S'\n\xd7\xa3p=B`@'
p988
tp989
Rp990
tp991
a(I321
I1000
I125
F0.20008241439094349
g101
(g105
S'{\x14\xaeG\xe1r`@'
p992
tp993
Rp994
tp995
a(I322
I1000
I151
F0.19908200231898876
g101
(g105
S'\xf6(\\\x8f\xc2}`@'
p996
tp997
Rp998
tp999
a(I323
I1000
I131
F0.1980865923073938
g101
(g105
S'\n\xd7\xa3p=\x92`@'
p1000
tp1001
Rp1002
tp1003
a(I324
I1000
I163
F0.19709615934585684
g101
(g105
S'{\x14\xaeG\xe1\x8a`@'
p1004
tp1005
Rp1006
tp1007
a(I325
I1000
I160
F0.19611067854912756
g101
(g105
S'\x00\x00\x00\x00\x00\xa0`@'
p1008
tp1009
Rp1010
tp1011
a(I326
I1000
I172
F0.19513012515638192
g101
(g105
S'\\\x8f\xc2\xf5(\xb4`@'
p1012
tp1013
Rp1014
tp1015
a(I327
I1000
I110
F0.1941544745306
g101
(g105
S'\x00\x00\x00\x00\x00\xc0`@'
p1016
tp1017
Rp1018
tp1019
a(I328
I1000
I224
F0.193183702157947
g101
(g105
S'\n\xd7\xa3p=\xaa`@'
p1020
tp1021
Rp1022
tp1023
a(I329
I1000
I234
F0.19221778364715728
g101
(g105
S'\x00\x00\x00\x00\x00\xd0`@'
p1024
tp1025
Rp1026
tp1027
a(I330
I1000
I177
F0.19125669472892148
g101
(g105
S'\x1f\x85\xebQ\xb8\xe6`@'
p1028
tp1029
Rp1030
tp1031
a(I331
I1000
I144
F0.19030041125527689
g101
(g105
S'\xe1z\x14\xaeG\x01a@'
p1032
tp1033
Rp1034
tp1035
a(I332
I1000
I122
F0.1893489091990005
g101
(g105
S'33333\xfb`@'
p1036
tp1037
Rp1038
tp1039
a(I333
I1000
I122
F0.1884021646530055
g101
(g105
S')\\\x8f\xc2\xf5\x00a@'
p1040
tp1041
Rp1042
tp1043
a(I334
I1000
I143
F0.18746015382974046
g101
(g105
S'\xd7\xa3p=\n\x07a@'
p1044
tp1045
Rp1046
tp1047
a(I335
I1000
I118
F0.18652285306059177
g101
(g105
S')\\\x8f\xc2\xf5\x10a@'
p1048
tp1049
Rp1050
tp1051
a(I336
I1000
I190
F0.1855902387952888
g101
(g105
S'\xc3\xf5(\\\x8f\x12a@'
p1052
tp1053
Rp1054
tp1055
a(I337
I1000
I118
F0.18466228760131234
g101
(g105
S')\\\x8f\xc2\xf50a@'
p1056
tp1057
Rp1058
tp1059
a(I338
I1000
I126
F0.18373897616330578
g101
(g105
S"\xd7\xa3p=\n'a@"
p1060
tp1061
Rp1062
tp1063
a(I339
I1000
I123
F0.18282028128248926
g101
(g105
S'\x8f\xc2\xf5(\\\x17a@'
p1064
tp1065
Rp1066
tp1067
a(I340
I1000
I130
F0.1819061798760768
g101
(g105
S'{\x14\xaeG\xe1\xda`@'
p1068
tp1069
Rp1070
tp1071
a(I341
I1000
I128
F0.1809966489766964
g101
(g105
S'\x1f\x85\xebQ\xb8\xce`@'
p1072
tp1073
Rp1074
tp1075
a(I342
I1000
I133
F0.18009166573181293
g101
(g105
S'\n\xd7\xa3p=\xda`@'
p1076
tp1077
Rp1078
tp1079
a(I343
I1000
I115
F0.17919120740315386
g101
(g105
S'=\n\xd7\xa3p\xe5`@'
p1080
tp1081
Rp1082
tp1083
a(I344
I1000
I116
F0.17829525136613808
g101
(g105
S'\xcd\xcc\xcc\xcc\xcc\xec`@'
p1084
tp1085
Rp1086
tp1087
a(I345
I1000
I105
F0.17740377510930738
g101
(g105
S'H\xe1z\x14\xae\xef`@'
p1088
tp1089
Rp1090
tp1091
a(I346
I1000
I145
F0.17651675623376084
g101
(g105
S'\xc3\xf5(\\\x8f\xfa`@'
p1092
tp1093
Rp1094
tp1095
a(I347
I1000
I112
F0.17563417245259202
g101
(g105
S'33333\x0ba@'
p1096
tp1097
Rp1098
tp1099
a(I348
I1000
I100
F0.17475600159032906
g101
(g105
S'H\xe1z\x14\xae\x17a@'
p1100
tp1101
Rp1102
tp1103
a(I349
I1000
I94
F0.1738822215823774
g101
(g105
S'\x14\xaeG\xe1z\x1ca@'
p1104
tp1105
Rp1106
tp1107
a(I350
I1000
I103
F0.1730128104744655
g101
(g105
S'\x9a\x99\x99\x99\x99\x19a@'
p1108
tp1109
Rp1110
tp1111
a(I351
I1000
I88
F0.17214774642209318
g101
(g105
S')\\\x8f\xc2\xf5 a@'
p1112
tp1113
Rp1114
tp1115
a(I352
I1000
I99
F0.17128700768998273
g101
(g105
S'fffff\x16a@'
p1116
tp1117
Rp1118
tp1119
a(I353
I1000
I153
F0.1704305726515328
g101
(g105
S')\\\x8f\xc2\xf5 a@'
p1120
tp1121
Rp1122
tp1123
a(I354
I1000
I113
F0.16957841978827515
g101
(g105
S'\x8f\xc2\xf5(\\Ga@'
p1124
tp1125
Rp1126
tp1127
a(I355
I1000
I113
F0.16873052768933378
g101
(g105
S'\x8f\xc2\xf5(\\?a@'
p1128
tp1129
Rp1130
tp1131
a(I356
I1000
I93
F0.16788687505088712
g101
(g105
S'\xa4p=\n\xd7;a@'
p1132
tp1133
Rp1134
tp1135
a(I357
I1000
I77
F0.16704744067563268
g101
(g105
S'\x1f\x85\xebQ\xb8.a@'
p1136
tp1137
Rp1138
tp1139
a(I358
I1000
I78
F0.16621220347225452
g101
(g105
S'\xd7\xa3p=\n\x1fa@'
p1140
tp1141
Rp1142
tp1143
a(I359
I1000
I86
F0.16538114245489324
g101
(g105
S'\xaeG\xe1z\x14&a@'
p1144
tp1145
Rp1146
tp1147
a(I360
I1000
I143
F0.16455423674261876
g101
(g105
S'\\\x8f\xc2\xf5($a@'
p1148
tp1149
Rp1150
tp1151
a(I361
I1000
I500
F0.16373146555890566
g101
(g105
S'\xcd\xcc\xcc\xcc\xccDa@'
p1152
tp1153
Rp1154
tp1155
a(I362
I1000
I215
F0.16291280823111112
g101
(g105
S'33333\xdba@'
p1156
tp1157
Rp1158
tp1159
a(I363
I1000
I174
F0.16209824418995555
g101
(g105
S'\x1f\x85\xebQ\xb8\x0eb@'
p1160
tp1161
Rp1162
tp1163
a(I364
I1000
I279
F0.16128775296900577
g101
(g105
S'\x00\x00\x00\x00\x000b@'
p1164
tp1165
Rp1166
tp1167
a(I365
I1000
I184
F0.16048131420416073
g101
(g105
S'\xecQ\xb8\x1e\x85sb@'
p1168
tp1169
Rp1170
tp1171
a(I366
I1000
I172
F0.15967890763313994
g101
(g105
S'\xe1z\x14\xaeG\x91b@'
p1172
tp1173
Rp1174
tp1175
a(I367
I1000
I178
F0.15888051309497425
g101
(g105
S'R\xb8\x1e\x85\xeb\xa9b@'
p1176
tp1177
Rp1178
tp1179
a(I368
I1000
I169
F0.1580861105294994
g101
(g105
S'\xc3\xf5(\\\x8f\xd2b@'
p1180
tp1181
Rp1182
tp1183
a(I369
I1000
I144
F0.1572956799768519
g101
(g105
S'\x1f\x85\xebQ\xb8\xeeb@'
p1184
tp1185
Rp1186
tp1187
a(I370
I1000
I214
F0.15650920157696763
g101
(g105
S'\xcd\xcc\xcc\xcc\xcc\xfcb@'
p1188
tp1189
Rp1190
tp1191
a(I371
I1000
I221
F0.1557266555690828
g101
(g105
S'\\\x8f\xc2\xf5(<c@'
p1192
tp1193
Rp1194
tp1195
a(I372
I1000
I341
F0.1549480222912374
g101
(g105
S'\xaeG\xe1z\x14Nc@'
p1196
tp1197
Rp1198
tp1199
a(I373
I1000
I188
F0.1541732821797812
g101
(g105
S'R\xb8\x1e\x85\xebic@'
p1200
tp1201
Rp1202
tp1203
a(I374
I1000
I360
F0.1534024157688823
g101
(g105
S'\n\xd7\xa3p=bc@'
p1204
tp1205
Rp1206
tp1207
a(I375
I1000
I222
F0.1526354036900379
g101
(g105
S'\x8f\xc2\xf5(\\\xafc@'
p1208
tp1209
Rp1210
tp1211
a(I376
I1000
I332
F0.1518722266715877
g101
(g105
S'H\xe1z\x14\xae\xcfc@'
p1212
tp1213
Rp1214
tp1215
a(I377
I1000
I233
F0.15111286553822975
g101
(g105
S'fffff\x16d@'
p1216
tp1217
Rp1218
tp1219
a(I378
I1000
I344
F0.1503573012105386
g101
(g105
S'\xa4p=\n\xd7;d@'
p1220
tp1221
Rp1222
tp1223
a(I379
I1000
I208
F0.1496055147044859
g101
(g105
S'33333{d@'
p1224
tp1225
Rp1226
tp1227
a(I380
I1000
I157
F0.14885748713096347
g101
(g105
S'\xe1z\x14\xaeG\x81d@'
p1228
tp1229
Rp1230
tp1231
a(I381
I1000
I242
F0.14811319969530864
g101
(g105
S'H\xe1z\x14\xae\x87d@'
p1232
tp1233
Rp1234
tp1235
a(I382
I1000
I227
F0.1473726336968321
g101
(g105
S'\x8f\xc2\xf5(\\\xa7d@'
p1236
tp1237
Rp1238
tp1239
a(I383
I1000
I179
F0.14663577052834795
g101
(g105
S'R\xb8\x1e\x85\xeb\xd1d@'
p1240
tp1241
Rp1242
tp1243
a(I384
I1000
I256
F0.1459025916757062
g101
(g105
S'\xecQ\xb8\x1e\x85\xf3d@'
p1244
tp1245
Rp1246
tp1247
a(I385
I1000
I211
F0.14517307871732768
g101
(g105
S'\xaeG\xe1z\x14.e@'
p1248
tp1249
Rp1250
tp1251
a(I386
I1000
I262
F0.14444721332374105
g101
(g105
S'\\\x8f\xc2\xf5(Le@'
p1252
tp1253
Rp1254
tp1255
a(I387
I1000
I500
F0.14372497725712235
g101
(g105
S'\xa4p=\n\xd7{e@'
p1256
tp1257
Rp1258
tp1259
a(I388
I1000
I126
F0.14300635237083675
g101
(g105
S'\xcd\xcc\xcc\xcc\xcc\x04f@'
p1260
tp1261
Rp1262
tp1263
a(I389
I1000
I149
F0.14229132060898256
g101
(g105
S'\x85\xebQ\xb8\x1e\x15f@'
p1264
tp1265
Rp1266
tp1267
a(I390
I1000
I119
F0.14157986400593764
g101
(g105
S'R\xb8\x1e\x85\xeb)f@'
p1268
tp1269
Rp1270
tp1271
a(I391
I1000
I145
F0.14087196468590796
g101
(g105
S'\xcd\xcc\xcc\xcc\xcc4f@'
p1272
tp1273
Rp1274
tp1275
a(I392
I1000
I151
F0.14016760486247842
g101
(g105
S'\xecQ\xb8\x1e\x85\xe3e@'
p1276
tp1277
Rp1278
tp1279
a(I393
I1000
I152
F0.13946676683816603
g101
(g105
S'\xe1z\x14\xaeG\xe1e@'
p1280
tp1281
Rp1282
tp1283
a(I394
I1000
I128
F0.1387694330039752
g101
(g105
S'\x9a\x99\x99\x99\x99\xd9e@'
p1284
tp1285
Rp1286
tp1287
a(I395
I1000
I125
F0.13807558583895532
g101
(g105
S'\xf6(\\\x8f\xc2\xc5e@'
p1288
tp1289
Rp1290
tp1291
a(I396
I1000
I247
F0.13738520790976055
g101
(g105
S'\xc3\xf5(\\\x8f\xcae@'
p1292
tp1293
Rp1294
tp1295
a(I397
I1000
I214
F0.13669828187021174
g101
(g105
S'\x85\xebQ\xb8\x1e\xf5e@'
p1296
tp1297
Rp1298
tp1299
a(I398
I1000
I214
F0.13601479046086068
g101
(g105
S'\x8f\xc2\xf5(\\\xd7e@'
p1300
tp1301
Rp1302
tp1303
a(I399
I1000
I147
F0.13533471650855639
g101
(g105
S'R\xb8\x1e\x85\xeb\xe1e@'
p1304
tp1305
Rp1306
tp1307
a(I400
I1000
I122
F0.1346580429260136
g101
(g105
S'\xd7\xa3p=\n\xd7e@'
p1308
tp1309
Rp1310
tp1311
a(I401
I1000
I103
F0.13398475271138355
g101
(g105
S'\x8f\xc2\xf5(\\\xcfe@'
p1312
tp1313
Rp1314
tp1315
a(I402
I1000
I158
F0.13331482894782662
g101
(g105
S'\xcd\xcc\xcc\xcc\xcc\x84e@'
p1316
tp1317
Rp1318
tp1319
a(I403
I1000
I214
F0.13264825480308748
g101
(g105
S'\xecQ\xb8\x1e\x85\x93e@'
p1320
tp1321
Rp1322
tp1323
a(I404
I1000
I148
F0.13198501352907205
g101
(g105
S'\xe1z\x14\xaeG\x89e@'
p1324
tp1325
Rp1326
tp1327
a(I405
I1000
I246
F0.13132508846142668
g101
(g105
S'\x14\xaeG\xe1z|e@'
p1328
tp1329
Rp1330
tp1331
a(I406
I1000
I220
F0.13066846301911955
g101
(g105
S'q=\n\xd7\xa3\x90e@'
p1332
tp1333
Rp1334
tp1335
a(I407
I1000
I204
F0.13001512070402396
g101
(g105
S')\\\x8f\xc2\xf5\xb0e@'
p1336
tp1337
Rp1338
tp1339
a(I408
I1000
I176
F0.12936504510050384
g101
(g105
S'\xcd\xcc\xcc\xcc\xcc\x8ce@'
p1340
tp1341
Rp1342
tp1343
a(I409
I1000
I173
F0.12871821987500132
g101
(g105
S'\\\x8f\xc2\xf5(\x9ce@'
p1344
tp1345
Rp1346
tp1347
a(I410
I1000
I154
F0.1280746287756263
g101
(g105
S'\x14\xaeG\xe1z\xace@'
p1348
tp1349
Rp1350
tp1351
a(I411
I1000
I183
F0.12743425563174818
g101
(g105
S'\xe1z\x14\xaeG\xc1e@'
p1352
tp1353
Rp1354
tp1355
a(I412
I1000
I151
F0.12679708435358944
g101
(g105
S'fffff\xdee@'
p1356
tp1357
Rp1358
tp1359
a(I413
I1000
I228
F0.12616309893182148
g101
(g105
S'\x85\xebQ\xb8\x1e\xf5e@'
p1360
tp1361
Rp1362
tp1363
a(I414
I1000
I169
F0.12553228343716238
g101
(g105
S'\xf6(\\\x8f\xc2\x1df@'
p1364
tp1365
Rp1366
tp1367
a(I415
I1000
I119
F0.12490462201997657
g101
(g105
S'R\xb8\x1e\x85\xebAf@'
p1368
tp1369
Rp1370
tp1371
a(I416
I1000
I131
F0.12428009890987668
g101
(g105
S'\\\x8f\xc2\xf5(Tf@'
p1372
tp1373
Rp1374
tp1375
a(I417
I1000
I131
F0.1236586984153273
g101
(g105
S'\x14\xaeG\xe1z4f@'
p1376
tp1377
Rp1378
tp1379
a(I418
I1000
I156
F0.12304040492325066
g101
(g105
S'\x14\xaeG\xe1z\xe4e@'
p1380
tp1381
Rp1382
tp1383
a(I419
I1000
I143
F0.12242520289863441
g101
(g105
S'{\x14\xaeG\xe1\xc2e@'
p1384
tp1385
Rp1386
tp1387
a(I420
I1000
I146
F0.12181307688414124
g101
(g105
S')\\\x8f\xc2\xf5\xb0e@'
p1388
tp1389
Rp1390
tp1391
a(I421
I1000
I154
F0.12120401149972053
g101
(g105
S'R\xb8\x1e\x85\xeb\x99e@'
p1392
tp1393
Rp1394
tp1395
a(I422
I1000
I264
F0.12059799144222193
g101
(g105
S'33333\xa3e@'
p1396
tp1397
Rp1398
tp1399
a(I423
I1000
I179
F0.11999500148501081
g101
(g105
S'\x8f\xc2\xf5(\\\xc7e@'
p1400
tp1401
Rp1402
tp1403
a(I424
I1000
I158
F0.11939502647758576
g101
(g105
S'\x1f\x85\xebQ\xb8\xd6e@'
p1404
tp1405
Rp1406
tp1407
a(I425
I1000
I132
F0.11879805134519783
g101
(g105
S'\x85\xebQ\xb8\x1e\xd5e@'
p1408
tp1409
Rp1410
tp1411
a(I426
I1000
I131
F0.11820406108847184
g101
(g105
S'\\\x8f\xc2\xf5(\xcce@'
p1412
tp1413
Rp1414
tp1415
a(I427
I1000
I150
F0.11761304078302948
g101
(g105
S'\xd7\xa3p=\n\xbfe@'
p1416
tp1417
Rp1418
tp1419
a(I428
I1000
I197
F0.11702497557911433
g101
(g105
S'\xa4p=\n\xd7\xcbe@'
p1420
tp1421
Rp1422
tp1423
a(I429
I1000
I407
F0.11643985070121876
g101
(g105
S'33333\xc3e@'
p1424
tp1425
Rp1426
tp1427
a(I430
I1000
I500
F0.11585765144771266
g101
(g105
S'\xc3\xf5(\\\x8f\xfae@'
p1428
tp1429
Rp1430
tp1431
a(I431
I1000
I299
F0.1152783631904741
g101
(g105
S'R\xb8\x1e\x85\xebaf@'
p1432
tp1433
Rp1434
tp1435
a(I432
I1000
I500
F0.11470197137452173
g101
(g105
S'\xecQ\xb8\x1e\x85\x93f@'
p1436
tp1437
Rp1438
tp1439
a(I433
I1000
I162
F0.11412846151764912
g101
(g105
S'\x14\xaeG\xe1z\x0cg@'
p1440
tp1441
Rp1442
tp1443
a(I434
I1000
I148
F0.11355781921006088
g101
(g105
S'\xe1z\x14\xaeG\x19g@'
p1444
tp1445
Rp1446
tp1447
a(I435
I1000
I447
F0.11299003011401057
g101
(g105
S'{\x14\xaeG\xe1\x1ag@'
p1448
tp1449
Rp1450
tp1451
a(I436
I1000
I235
F0.11242507996344052
g101
(g105
S'\\\x8f\xc2\xf5(\x84g@'
p1452
tp1453
Rp1454
tp1455
a(I437
I1000
I304
F0.11186295456362332
g101
(g105
S'\xc3\xf5(\\\x8f\x92g@'
p1456
tp1457
Rp1458
tp1459
a(I438
I1000
I452
F0.1113036397908052
g101
(g105
S'\xaeG\xe1z\x14\xceg@'
p1460
tp1461
Rp1462
tp1463
a(I439
I1000
I231
F0.11074712159185117
g101
(g105
S'fffff6h@'
p1464
tp1465
Rp1466
tp1467
a(I440
I1000
I269
F0.11019338598389192
g101
(g105
S')\\\x8f\xc2\xf5Xh@'
p1468
tp1469
Rp1470
tp1471
a(I441
I1000
I263
F0.10964241905397246
g101
(g105
S'=\n\xd7\xa3p\x85h@'
p1472
tp1473
Rp1474
tp1475
a(I442
I1000
I500
F0.10909420695870259
g101
(g105
S'q=\n\xd7\xa3\xb0h@'
p1476
tp1477
Rp1478
tp1479
a(I443
I1000
I287
F0.10854873592390908
g101
(g105
S'\xaeG\xe1z\x14&i@'
p1480
tp1481
Rp1482
tp1483
a(I444
I1000
I500
F0.10800599224428954
g101
(g105
S'\x85\xebQ\xb8\x1e]i@'
p1484
tp1485
Rp1486
tp1487
a(I445
I1000
I358
F0.1074659622830681
g101
(g105
S'\x00\x00\x00\x00\x00\xd8i@'
p1488
tp1489
Rp1490
tp1491
a(I446
I1000
I306
F0.10692863247165275
g101
(g105
S')\\\x8f\xc2\xf5(j@'
p1492
tp1493
Rp1494
tp1495
a(I447
I1000
I293
F0.10639398930929449
g101
(g105
S'\x14\xaeG\xe1z\\j@'
p1496
tp1497
Rp1498
tp1499
a(I448
I1000
I301
F0.10586201936274801
g101
(g105
S'fffff\x96j@'
p1500
tp1501
Rp1502
tp1503
a(I449
I1000
I296
F0.10533270926593427
g101
(g105
S'\x1f\x85\xebQ\xb8\xd6j@'
p1504
tp1505
Rp1506
tp1507
a(I450
I1000
I397
F0.1048060457196046
g101
(g105
S'\x8f\xc2\xf5(\\\x17k@'
p1508
tp1509
Rp1510
tp1511
a(I451
I1000
I256
F0.10428201549100657
g101
(g105
S'=\n\xd7\xa3puk@'
p1512
tp1513
Rp1514
tp1515
a(I452
I1000
I269
F0.10376060541355155
g101
(g105
S'33333\xabk@'
p1516
tp1517
Rp1518
tp1519
a(I453
I1000
I307
F0.10324180238648378
g101
(g105
S'\x9a\x99\x99\x99\x99\xe1k@'
p1520
tp1521
Rp1522
tp1523
a(I454
I1000
I500
F0.10272559337455137
g101
(g105
S'{\x14\xaeG\xe1\x12l@'
p1524
tp1525
Rp1526
tp1527
a(I455
I1000
I197
F0.10221196540767861
g101
(g105
S'\x1f\x85\xebQ\xb8\x8el@'
p1528
tp1529
Rp1530
tp1531
a(I456
I1000
I500
F0.10170090558064022
g101
(g105
S'\x9a\x99\x99\x99\x99\xa9l@'
p1532
tp1533
Rp1534
tp1535
a(I457
I1000
I240
F0.10119240105273702
g101
(g105
S'\xa4p=\n\xd7+m@'
p1536
tp1537
Rp1538
tp1539
a(I458
I1000
I500
F0.10068643904747333
g101
(g105
S'\x00\x00\x00\x00\x00`m@'
p1540
tp1541
Rp1542
tp1543
a(I459
I1000
I500
F0.10018300685223597
g101
(g105
S'\xd7\xa3p=\n\xe7m@'
p1544
tp1545
Rp1546
tp1547
a(I460
I1000
I447
F0.09968209181797479
g101
(g105
S'\xecQ\xb8\x1e\x85kn@'
p1548
tp1549
Rp1550
tp1551
a(I461
I1000
I226
F0.09918368135888492
g101
(g105
S'\xcd\xcc\xcc\xcc\xcc\xccn@'
p1552
tp1553
Rp1554
tp1555
a(I462
I1000
I264
F0.09868776295209049
g101
(g105
S'\x85\xebQ\xb8\x1eun@'
p1556
tp1557
Rp1558
tp1559
a(I463
I1000
I500
F0.09819432413733004
g101
(g105
S'\xcd\xcc\xcc\xcc\xcc\x84n@'
p1560
tp1561
Rp1562
tp1563
a(I464
I1000
I348
F0.09770335251664339
g101
(g105
S'\x85\xebQ\xb8\x1e\xedn@'
p1564
tp1565
Rp1566
tp1567
a(I465
I1000
I500
F0.09721483575406017
g101
(g105
S'33333\x03o@'
p1568
tp1569
Rp1570
tp1571
a(I466
I1000
I406
F0.09672876157528987
g101
(g105
S'\xb8\x1e\x85\xebQho@'
p1572
tp1573
Rp1574
tp1575
a(I467
I1000
I363
F0.09624511776741342
g101
(g105
S'33333\xb3o@'
p1576
tp1577
Rp1578
tp1579
a(I468
I1000
I304
F0.09576389217857635
g101
(g105
S'fffff\xeeo@'
p1580
tp1581
Rp1582
tp1583
a(I469
I1000
I227
F0.09528507271768347
g101
(g105
S'\xcd\xcc\xcc\xcc\xcc\x0cp@'
p1584
tp1585
Rp1586
tp1587
a(I470
I1000
I190
F0.09480864735409505
g101
(g105
S'\xaeG\xe1z\x14\x1ap@'
p1588
tp1589
Rp1590
tp1591
a(I471
I1000
I235
F0.09433460411732458
g101
(g105
S'\n\xd7\xa3p=\x16p@'
p1592
tp1593
Rp1594
tp1595
a(I472
I1000
I157
F0.09386293109673796
g101
(g105
S'\x14\xaeG\xe1z\x18p@'
p1596
tp1597
Rp1598
tp1599
a(I473
I1000
I235
F0.09339361644125427
g101
(g105
S'\xaeG\xe1z\x14\xf6o@'
p1600
tp1601
Rp1602
tp1603
a(I474
I1000
I282
F0.092926648359048
g101
(g105
S'\xc3\xf5(\\\x8f\x02p@'
p1604
tp1605
Rp1606
tp1607
a(I475
I1000
I280
F0.09246201511725276
g101
(g105
S'\\\x8f\xc2\xf5(\xeco@'
p1608
tp1609
Rp1610
tp1611
a(I476
I1000
I500
F0.09199970504166649
g101
(g105
S'\x1f\x85\xebQ\xb8\xfeo@'
p1612
tp1613
Rp1614
tp1615
a(I477
I1000
I292
F0.09153970651645815
g101
(g105
S'\n\xd7\xa3p=\x1ap@'
p1616
tp1617
Rp1618
tp1619
a(I478
I1000
I183
F0.09108200798387586
g101
(g105
S'H\xe1z\x14\xae#p@'
p1620
tp1621
Rp1622
tp1623
a(I479
I1000
I180
F0.09062659794395649
g101
(g105
S'R\xb8\x1e\x85\xeb\tp@'
p1624
tp1625
Rp1626
tp1627
a(I480
I1000
I280
F0.0901734649542367
g101
(g105
S'=\n\xd7\xa3p\x05p@'
p1628
tp1629
Rp1630
tp1631
a(I481
I1000
I421
F0.08972259762946551
g101
(g105
S'\x85\xebQ\xb8\x1e\x19p@'
p1632
tp1633
Rp1634
tp1635
a(I482
I1000
I247
F0.08927398464131818
g101
(g105
S'\xf6(\\\x8f\xc25p@'
p1636
tp1637
Rp1638
tp1639
a(I483
I1000
I342
F0.08882761471811158
g101
(g105
S')\\\x8f\xc2\xf58p@'
p1640
tp1641
Rp1642
tp1643
a(I484
I1000
I416
F0.08838347664452102
g101
(g105
S'\xd7\xa3p=\nSp@'
p1644
tp1645
Rp1646
tp1647
a(I485
I1000
I216
F0.08794155926129842
g101
(g105
S'q=\n\xd7\xa3lp@'
p1648
tp1649
Rp1650
tp1651
a(I486
I1000
I340
F0.08750185146499193
g101
(g105
S'=\n\xd7\xa3pmp@'
p1652
tp1653
Rp1654
tp1655
a(I487
I1000
I227
F0.08706434220766697
g101
(g105
S'R\xb8\x1e\x85\xebyp@'
p1656
tp1657
Rp1658
tp1659
a(I488
I1000
I214
F0.08662902049662863
g101
(g105
S'\n\xd7\xa3p=Np@'
p1660
tp1661
Rp1662
tp1663
a(I489
I1000
I281
F0.08619587539414549
g101
(g105
S'\xb8\x1e\x85\xebQ\\p@'
p1664
tp1665
Rp1666
tp1667
a(I490
I1000
I246
F0.08576489601717475
g101
(g105
S'=\n\xd7\xa3pqp@'
p1668
tp1669
Rp1670
tp1671
a(I491
I1000
I307
F0.08533607153708889
g101
(g105
S'\xf6(\\\x8f\xc2\x85p@'
p1672
tp1673
Rp1674
tp1675
a(I492
I1000
I500
F0.08490939117940344
g101
(g105
S'H\xe1z\x14\xae\x9fp@'
p1676
tp1677
Rp1678
tp1679
a(I493
I1000
I441
F0.08448484422350643
g101
(g105
S'\xecQ\xb8\x1e\x85\xd7p@'
p1680
tp1681
Rp1682
tp1683
a(I494
I1000
I363
F0.0840624200023889
g101
(g105
S'\xf6(\\\x8f\xc2\x05q@'
p1684
tp1685
Rp1686
tp1687
a(I495
I1000
I389
F0.08364210790237694
g101
(g105
S'\x8f\xc2\xf5(\\+q@'
p1688
tp1689
Rp1690
tp1691
a(I496
I1000
I479
F0.08322389736286506
g101
(g105
S'\x9a\x99\x99\x99\x99Uq@'
p1692
tp1693
Rp1694
tp1695
a(I497
I1000
I200
F0.08280777787605073
g101
(g105
S'\x1f\x85\xebQ\xb8zq@'
p1696
tp1697
Rp1698
tp1699
a(I498
I1000
I291
F0.08239373898667048
g101
(g105
S'\x14\xaeG\xe1zxq@'
p1700
tp1701
Rp1702
tp1703
a(I499
I1000
I317
F0.08198177029173713
g101
(g105
S'\xcd\xcc\xcc\xcc\xcc\x84q@'
p1704
tp1705
Rp1706
tp1707
a(I500
I1000
I367
F0.08157186144027845
g101
(g105
S'\x00\x00\x00\x00\x00\xa0q@'
p1708
tp1709
Rp1710
tp1711
a(I501
I1000
I263
F0.08116400213307706
g101
(g105
S'33333\xc7q@'
p1712
tp1713
Rp1714
tp1715
a(I502
I1000
I308
F0.08075818212241168
g101
(g105
S'\xcd\xcc\xcc\xcc\xcc\xe0q@'
p1716
tp1717
Rp1718
tp1719
a(I503
I1000
I335
F0.08035439121179962
g101
(g105
S'\xcd\xcc\xcc\xcc\xcc\xf8q@'
p1720
tp1721
Rp1722
tp1723
a(I504
I1000
I247
F0.07995261925574061
g101
(g105
S'\\\x8f\xc2\xf5(\x0cr@'
p1724
tp1725
Rp1726
tp1727
a(I505
I1000
I229
F0.07955285615946191
g101
(g105
S'\x00\x00\x00\x00\x00\x1cr@'
p1728
tp1729
Rp1730
tp1731
a(I506
I1000
I233
F0.0791550918786646
g101
(g105
S'\xe1z\x14\xaeG\x19r@'
p1732
tp1733
Rp1734
tp1735
a(I507
I1000
I241
F0.07875931641927128
g101
(g105
S'\x8f\xc2\xf5(\\\x1br@'
p1736
tp1737
Rp1738
tp1739
a(I508
I1000
I301
F0.07836551983717492
g101
(g105
S'\xe1z\x14\xaeG!r@'
p1740
tp1741
Rp1742
tp1743
a(I509
I1000
I500
F0.07797369223798904
g101
(g105
S'\xe1z\x14\xaeG5r@'
p1744
tp1745
Rp1746
tp1747
a(I510
I1000
I500
F0.0775838237767991
g101
(g105
S'\x9a\x99\x99\x99\x99ir@'
p1748
tp1749
Rp1750
tp1751
a(I511
I1000
I500
F0.0771959046579151
g101
(g105
S')\\\x8f\xc2\xf5\xa0r@'
p1752
tp1753
Rp1754
tp1755
a(I512
I1000
I296
F0.07680992513462552
g101
(g105
S'H\xe1z\x14\xae\xd3r@'
p1756
tp1757
Rp1758
tp1759
a(I513
I1000
I500
F0.0764258755089524
g101
(g105
S'{\x14\xaeG\xe1\xear@'
p1760
tp1761
Rp1762
tp1763
a(I514
I1000
I410
F0.07604374613140763
g101
(g105
S'fffff\x16s@'
p1764
tp1765
Rp1766
tp1767
a(I515
I1000
I500
F0.0756635274007506
g101
(g105
S')\\\x8f\xc2\xf5<s@'
p1768
tp1769
Rp1770
tp1771
a(I516
I1000
I476
F0.07528520976374684
g101
(g105
S'R\xb8\x1e\x85\xebys@'
p1772
tp1773
Rp1774
tp1775
a(I517
I1000
I327
F0.0749087837149281
g101
(g105
S'\x85\xebQ\xb8\x1e\xb1s@'
p1776
tp1777
Rp1778
tp1779
a(I518
I1000
I368
F0.07453423979635346
g101
(g105
S'\x14\xaeG\xe1z\xd0s@'
p1780
tp1781
Rp1782
tp1783
a(I519
I1000
I376
F0.07416156859737169
g101
(g105
S'fffff\xf2s@'
p1784
tp1785
Rp1786
tp1787
a(I520
I1000
I479
F0.07379076075438483
g101
(g105
S'H\xe1z\x14\xae\x17t@'
p1788
tp1789
Rp1790
tp1791
a(I521
I1000
I357
F0.0734218069506129
g101
(g105
S')\\\x8f\xc2\xf5Lt@'
p1792
tp1793
Rp1794
tp1795
a(I522
I1000
I500
F0.07305469791585983
g101
(g105
S'=\n\xd7\xa3pmt@'
p1796
tp1797
Rp1798
tp1799
a(I523
I1000
I419
F0.07268942442628054
g101
(g105
S'33333\x93t@'
p1800
tp1801
Rp1802
tp1803
a(I524
I1000
I500
F0.07232597730414914
g101
(g105
S'\x9a\x99\x99\x99\x99\xb9t@'
p1804
tp1805
Rp1806
tp1807
a(I525
I1000
I328
F0.07196434741762839
g101
(g105
S'\xb8\x1e\x85\xebQ\xf0t@'
p1808
tp1809
Rp1810
tp1811
a(I526
I1000
I275
F0.07160452568054025
g101
(g105
S'H\xe1z\x14\xae\x0fu@'
p1812
tp1813
Rp1814
tp1815
a(I527
I1000
I332
F0.07124650305213755
g101
(g105
S'\x1f\x85\xebQ\xb8&u@'
p1816
tp1817
Rp1818
tp1819
a(I528
I1000
I326
F0.07089027053687685
g101
(g105
S'\xa4p=\n\xd7Cu@'
p1820
tp1821
Rp1822
tp1823
a(I529
I1000
I500
F0.07053581918419247
g101
(g105
S'\x14\xaeG\xe1zXu@'
p1824
tp1825
Rp1826
tp1827
a(I530
I1000
I500
F0.0701831400882715
g101
(g105
S'\x8f\xc2\xf5(\\gu@'
p1828
tp1829
Rp1830
tp1831
a(I531
I1000
I500
F0.06983222438783016
g101
(g105
S'\x8f\xc2\xf5(\\gu@'
p1832
tp1833
Rp1834
tp1835
a(I532
I1000
I457
F0.069483063265891
g101
(g105
S'\xecQ\xb8\x1e\x85\x87u@'
p1836
tp1837
Rp1838
tp1839
a(I533
I1000
I304
F0.06913564794956155
g101
(g105
S'q=\n\xd7\xa3\x80u@'
p1840
tp1841
Rp1842
tp1843
a(I534
I1000
I239
F0.06878996970981374
g101
(g105
S'\x8f\xc2\xf5(\\\x97u@'
p1844
tp1845
Rp1846
tp1847
a(I535
I1000
I297
F0.06844601986126467
g101
(g105
S'R\xb8\x1e\x85\xeb\xa5u@'
p1848
tp1849
Rp1850
tp1851
a(I536
I1000
I500
F0.06810378976195834
g101
(g105
S'R\xb8\x1e\x85\xeb\x8du@'
p1852
tp1853
Rp1854
tp1855
a(I537
I1000
I500
F0.06776327081314855
g101
(g105
S'\xb8\x1e\x85\xebQ\xb8u@'
p1856
tp1857
Rp1858
tp1859
a(I538
I1000
I500
F0.06742445445908281
g101
(g105
S'H\xe1z\x14\xae\xd7u@'
p1860
tp1861
Rp1862
tp1863
a(I539
I1000
I491
F0.06708733218678739
g101
(g105
S'\x8f\xc2\xf5(\\\xdfu@'
p1864
tp1865
Rp1866
tp1867
a(I540
I1000
I380
F0.06675189552585345
g101
(g105
S')\\\x8f\xc2\xf5\x08v@'
p1868
tp1869
Rp1870
tp1871
a(I541
I1000
I500
F0.06641813604822418
g101
(g105
S'\x1f\x85\xebQ\xb8\x1av@'
p1872
tp1873
Rp1874
tp1875
a(I542
I1000
I379
F0.06608604536798306
g101
(g105
S'q=\n\xd7\xa3@v@'
p1876
tp1877
Rp1878
tp1879
a(I543
I1000
I363
F0.06575561514114314
g101
(g105
S'\xe1z\x14\xaeG-v@'
p1880
tp1881
Rp1882
tp1883
a(I544
I1000
I258
F0.06542683706543742
g101
(g105
S'=\n\xd7\xa3p9v@'
p1884
tp1885
Rp1886
tp1887
a(I545
I1000
I332
F0.06509970288011023
g101
(g105
S'\x1f\x85\xebQ\xb8\x12v@'
p1888
tp1889
Rp1890
tp1891
a(I546
I1000
I285
F0.06477420436570967
g101
(g105
S'\xc3\xf5(\\\x8f\x0ev@'
p1892
tp1893
Rp1894
tp1895
a(I547
I1000
I365
F0.06445033334388113
g101
(g105
S'33333\x0bv@'
p1896
tp1897
Rp1898
tp1899
a(I548
I1000
I435
F0.06412808167716172
g101
(g105
S'\x1f\x85\xebQ\xb8\x16v@'
p1900
tp1901
Rp1902
tp1903
a(I549
I1000
I237
F0.06380744126877591
g101
(g105
S'\\\x8f\xc2\xf5(,v@'
p1904
tp1905
Rp1906
tp1907
a(I550
I1000
I342
F0.06348840406243203
g101
(g105
S'\x1f\x85\xebQ\xb8"v@'
p1908
tp1909
Rp1910
tp1911
a(I551
I1000
I329
F0.06317096204211987
g101
(g105
S'R\xb8\x1e\x85\xeb\x19v@'
p1912
tp1913
Rp1914
tp1915
a(I552
I1000
I500
F0.06285510723190928
g101
(g105
S'\x9a\x99\x99\x99\x99%v@'
p1916
tp1917
Rp1918
tp1919
a(I553
I1000
I447
F0.06254083169574973
g101
(g105
S'\xc3\xf5(\\\x8fJv@'
p1920
tp1921
Rp1922
tp1923
a(I554
I1000
I367
F0.06222812753727098
g101
(g105
S')\\\x8f\xc2\xf5`v@'
p1924
tp1925
Rp1926
tp1927
a(I555
I1000
I500
F0.06191698689958462
g101
(g105
S'H\xe1z\x14\xaeKv@'
p1928
tp1929
Rp1930
tp1931
a(I556
I1000
I443
F0.0616074019650867
g101
(g105
S'\\\x8f\xc2\xf5(|v@'
p1932
tp1933
Rp1934
tp1935
a(I557
I1000
I274
F0.06129936495526126
g101
(g105
S'\xd7\xa3p=\nsv@'
p1936
tp1937
Rp1938
tp1939
a(I558
I1000
I455
F0.060992868130484955
g101
(g105
S'\x14\xaeG\xe1zxv@'
p1940
tp1941
Rp1942
tp1943
a(I559
I1000
I500
F0.06068790378983253
g101
(g105
S'\xe1z\x14\xaeGqv@'
p1944
tp1945
Rp1946
tp1947
a(I560
I1000
I500
F0.06038446427088336
g101
(g105
S'\xe1z\x14\xaeGqv@'
p1948
tp1949
Rp1950
tp1951
a(I561
I1000
I482
F0.060082541949528945
g101
(g105
S'\xf6(\\\x8f\xc2yv@'
p1952
tp1953
Rp1954
tp1955
a(I562
I1000
I404
F0.0597821292397813
g101
(g105
S'\x1f\x85\xebQ\xb8\xa2v@'
p1956
tp1957
Rp1958
tp1959
a(I563
I1000
I498
F0.059483218593582396
g101
(g105
S'\x85\xebQ\xb8\x1e\xb9v@'
p1960
tp1961
Rp1962
tp1963
a(I564
I1000
I416
F0.05918580250061448
g101
(g105
S'\xcd\xcc\xcc\xcc\xcc\xb8v@'
p1964
tp1965
Rp1966
tp1967
a(I565
I1000
I467
F0.05888987348811141
g101
(g105
S'H\xe1z\x14\xae\xc3v@'
p1968
tp1969
Rp1970
tp1971
a(I566
I1000
I349
F0.05859542412067085
g101
(g105
S'fffff\xbev@'
p1972
tp1973
Rp1974
tp1975
a(I567
I1000
I500
F0.058302447000067495
g101
(g105
S'\xe1z\x14\xaeG\xb5v@'
p1976
tp1977
Rp1978
tp1979
a(I568
I1000
I314
F0.058010934765067156
g101
(g105
S'33333\xcbv@'
p1980
tp1981
Rp1982
tp1983
a(I569
I1000
I263
F0.05772088009124182
g101
(g105
S'\xcd\xcc\xcc\xcc\xcc\xccv@'
p1984
tp1985
Rp1986
tp1987
a(I570
I1000
I332
F0.057432275690785614
g101
(g105
S'\xc3\xf5(\\\x8f\xd2v@'
p1988
tp1989
Rp1990
tp1991
a(I571
I1000
I439
F0.057145114312331685
g101
(g105
S'\xe1z\x14\xaeG\xe9v@'
p1992
tp1993
Rp1994
tp1995
a(I572
I1000
I500
F0.056859388740770025
g101
(g105
S'R\xb8\x1e\x85\xeb\tw@'
p1996
tp1997
Rp1998
tp1999
a(I573
I1000
I342
F0.05657509179706618
g101
(g105
S'\xcd\xcc\xcc\xcc\xcc@w@'
p2000
tp2001
Rp2002
tp2003
a(I574
I1000
I467
F0.05629221633808085
g101
(g105
S'R\xb8\x1e\x85\xebQw@'
p2004
tp2005
Rp2006
tp2007
a(I575
I1000
I500
F0.056010755256390446
g101
(g105
S'\xecQ\xb8\x1e\x85ow@'
p2008
tp2009
Rp2010
tp2011
a(I576
I1000
I500
F0.055730701480108495
g101
(g105
S'\x1f\x85\xebQ\xb8\x92w@'
p2012
tp2013
Rp2014
tp2015
a(I577
I1000
I500
F0.05545204797270795
g101
(g105
S'\x1f\x85\xebQ\xb8\x92w@'
p2016
tp2017
Rp2018
tp2019
a(I578
I1000
I500
F0.05517478773284441
g101
(g105
S'\x00\x00\x00\x00\x00\xb4w@'
p2020
tp2021
Rp2022
tp2023
a(I579
I1000
I500
F0.054898913794180194
g101
(g105
S'\x1f\x85\xebQ\xb8\xe6w@'
p2024
tp2025
Rp2026
tp2027
a(I580
I1000
I290
F0.054624419225209296
g101
(g105
S'R\xb8\x1e\x85\xeb\x19x@'
p2028
tp2029
Rp2030
tp2031
a(I581
I1000
I266
F0.05435129712908325
g101
(g105
S'\xecQ\xb8\x1e\x85\x1bx@'
p2032
tp2033
Rp2034
tp2035
a(I582
I1000
I316
F0.05407954064343783
g101
(g105
S'\x1f\x85\xebQ\xb8\x02x@'
p2036
tp2037
Rp2038
tp2039
a(I583
I1000
I333
F0.05380914294022064
g101
(g105
S'\xf6(\\\x8f\xc2\rx@'
p2040
tp2041
Rp2042
tp2043
a(I584
I1000
I232
F0.053540097225519535
g101
(g105
S'\xb8\x1e\x85\xebQ\x0cx@'
p2044
tp2045
Rp2046
tp2047
a(I585
I1000
I322
F0.053272396739391936
g101
(g105
S'{\x14\xaeG\xe1\xeew@'
p2048
tp2049
Rp2050
tp2051
a(I586
I1000
I301
F0.05300603475569498
g101
(g105
S'\xa4p=\n\xd7\xffw@'
p2052
tp2053
Rp2054
tp2055
a(I587
I1000
I356
F0.0527410045819165
g101
(g105
S'\x9a\x99\x99\x99\x99\xf9w@'
p2056
tp2057
Rp2058
tp2059
a(I588
I1000
I306
F0.05247729955900692
g101
(g105
S'\n\xd7\xa3p=\x0ex@'
p2060
tp2061
Rp2062
tp2063
a(I589
I1000
I278
F0.052214913061211884
g101
(g105
S')\\\x8f\xc2\xf5\x1cx@'
p2064
tp2065
Rp2066
tp2067
a(I590
I1000
I187
F0.051953838495905826
g101
(g105
S'\x14\xaeG\xe1z\x1cx@'
p2068
tp2069
Rp2070
tp2071
a(I591
I1000
I175
F0.05169406930342629
g101
(g105
S'\xd7\xa3p=\n\x13x@'
p2072
tp2073
Rp2074
tp2075
a(I592
I1000
I192
F0.05143559895690916
g101
(g105
S'R\xb8\x1e\x85\xeb\xfdw@'
p2076
tp2077
Rp2078
tp2079
a(I593
I1000
I211
F0.05117842096212462
g101
(g105
S'q=\n\xd7\xa3\xccw@'
p2080
tp2081
Rp2082
tp2083
a(I594
I1000
I198
F0.05092252885731399
g101
(g105
S'\xa4p=\n\xd7\xa7w@'
p2084
tp2085
Rp2086
tp2087
a(I595
I1000
I213
F0.05066791621302742
g101
(g105
S'=\n\xd7\xa3p\x8dw@'
p2088
tp2089
Rp2090
tp2091
a(I596
I1000
I205
F0.050414576631962284
g101
(g105
S'\xe1z\x14\xaeGqw@'
p2092
tp2093
Rp2094
tp2095
a(I597
I1000
I201
F0.050162503748802476
g101
(g105
S'=\n\xd7\xa3pEw@'
p2096
tp2097
Rp2098
tp2099
a(I598
I1000
I206
F0.049911691230058466
g101
(g105
S'\x9a\x99\x99\x99\x99Ew@'
p2100
tp2101
Rp2102
tp2103
a(I599
I1000
I206
F0.04966213277390817
g101
(g105
S'\x00\x00\x00\x00\x008w@'
p2104
tp2105
Rp2106
tp2107
a(I600
I1000
I248
F0.04941382211003863
g101
(g105
S'\n\xd7\xa3p=&w@'
p2108
tp2109
Rp2110
tp2111
a(I601
I1000
I277
F0.04916675299948843
g101
(g105
S'33333\x13w@'
p2112
tp2113
Rp2114
tp2115
a(I602
I1000
I213
F0.04892091923449099
g101
(g105
S'=\n\xd7\xa3p\x15w@'
p2116
tp2117
Rp2118
tp2119
a(I603
I1000
I198
F0.048676314638318535
g101
(g105
S'\n\xd7\xa3p=\x06w@'
p2120
tp2121
Rp2122
tp2123
a(I604
I1000
I284
F0.04843293306512694
g101
(g105
S'\xb8\x1e\x85\xebQ\xf0v@'
p2124
tp2125
Rp2126
tp2127
a(I605
I1000
I315
F0.048190768399801305
g101
(g105
S'\n\xd7\xa3p=\xf6v@'
p2128
tp2129
Rp2130
tp2131
a(I606
I1000
I283
F0.0479498145578023
g101
(g105
S'\x00\x00\x00\x00\x00\x04w@'
p2132
tp2133
Rp2134
tp2135
a(I607
I1000
I212
F0.04771006548501329
g101
(g105
S'\x00\x00\x00\x00\x00\x0cw@'
p2136
tp2137
Rp2138
tp2139
a(I608
I1000
I175
F0.047471515157588226
g101
(g105
S'\x8f\xc2\xf5(\\\x07w@'
p2140
tp2141
Rp2142
tp2143
a(I609
I1000
I235
F0.04723415758180029
g101
(g105
S'33333\xf3v@'
p2144
tp2145
Rp2146
tp2147
a(I610
I1000
I361
F0.046997986793891285
g101
(g105
S'\xcd\xcc\xcc\xcc\xcc\xc8v@'
p2148
tp2149
Rp2150
tp2151
a(I611
I1000
I500
F0.04676299685992183
g101
(g105
S'\xc3\xf5(\\\x8f\xb2v@'
p2152
tp2153
Rp2154
tp2155
a(I612
I1000
I317
F0.04652918187562222
g101
(g105
S'\xc3\xf5(\\\x8f\xb2v@'
p2156
tp2157
Rp2158
tp2159
a(I613
I1000
I405
F0.04629653596624411
g101
(g105
S'R\xb8\x1e\x85\xeb\xb5v@'
p2160
tp2161
Rp2162
tp2163
a(I614
I1000
I409
F0.046065053286412895
g101
(g105
S'\x1f\x85\xebQ\xb8\xa6v@'
p2164
tp2165
Rp2166
tp2167
a(I615
I1000
I293
F0.04583472801998083
g101
(g105
S'\xc3\xf5(\\\x8f\xa6v@'
p2168
tp2169
Rp2170
tp2171
a(I616
I1000
I451
F0.045605554379880925
g101
(g105
S'=\n\xd7\xa3p\x85v@'
p2172
tp2173
Rp2174
tp2175
a(I617
I1000
I325
F0.04537752660798152
g101
(g105
S'=\n\xd7\xa3p\x81v@'
p2176
tp2177
Rp2178
tp2179
a(I618
I1000
I283
F0.04515063897494161
g101
(g105
S'\x85\xebQ\xb8\x1e\x81v@'
p2180
tp2181
Rp2182
tp2183
a(I619
I1000
I330
F0.044924885780066905
g101
(g105
S'\xecQ\xb8\x1e\x85sv@'
p2184
tp2185
Rp2186
tp2187
a(I620
I1000
I255
F0.04470026135116657
g101
(g105
S'\\\x8f\xc2\xf5(lv@'
p2188
tp2189
Rp2190
tp2191
a(I621
I1000
I239
F0.04447676004441074
g101
(g105
S'\xb8\x1e\x85\xebQHv@'
p2192
tp2193
Rp2194
tp2195
a(I622
I1000
I341
F0.04425437624418869
g101
(g105
S'=\n\xd7\xa3p5v@'
p2196
tp2197
Rp2198
tp2199
a(I623
I1000
I418
F0.04403310436296774
g101
(g105
S'\x00\x00\x00\x00\x00\x1cv@'
p2200
tp2201
Rp2202
tp2203
a(I624
I1000
I282
F0.04381293884115291
g101
(g105
S'\xa4p=\n\xd7\x1bv@'
p2204
tp2205
Rp2206
tp2207
a(I625
I1000
I282
F0.04359387414694714
g101
(g105
S')\\\x8f\xc2\xf5\xf8u@'
p2208
tp2209
Rp2210
tp2211
a(I626
I1000
I269
F0.04337590477621241
g101
(g105
S'\x9a\x99\x99\x99\x99\xf1u@'
p2212
tp2213
Rp2214
tp2215
a(I627
I1000
I316
F0.04315902525233135
g101
(g105
S'q=\n\xd7\xa3\xf0u@'
p2216
tp2217
Rp2218
tp2219
a(I628
I1000
I355
F0.04294323012606969
g101
(g105
S'\xaeG\xe1z\x14\xeeu@'
p2220
tp2221
Rp2222
tp2223
a(I629
I1000
I298
F0.04272851397543934
g101
(g105
S'\x1f\x85\xebQ\xb8\xf2u@'
p2224
tp2225
Rp2226
tp2227
a(I630
I1000
I310
F0.04251487140556215
g101
(g105
S'fffff\xd2u@'
p2228
tp2229
Rp2230
tp2231
a(I631
I1000
I374
F0.04230229704853434
g101
(g105
S'\x00\x00\x00\x00\x00\xb4u@'
p2232
tp2233
Rp2234
tp2235
a(I632
I1000
I404
F0.04209078556329167
g101
(g105
S'\xa4p=\n\xd7\x9fu@'
p2236
tp2237
Rp2238
tp2239
a(I633
I1000
I266
F0.041880331635475214
g101
(g105
S'\x8f\xc2\xf5(\\\x97u@'
p2240
tp2241
Rp2242
tp2243
a(I634
I1000
I304
F0.041670929977297835
g101
(g105
S'\xe1z\x14\xaeG\x91u@'
p2244
tp2245
Rp2246
tp2247
a(I635
I1000
I246
F0.04146257532741135
g101
(g105
S'H\xe1z\x14\xae\x9bu@'
p2248
tp2249
Rp2250
tp2251
a(I636
I1000
I269
F0.041255262450774294
g101
(g105
S'\xecQ\xb8\x1e\x85\x93u@'
p2252
tp2253
Rp2254
tp2255
a(I637
I1000
I351
F0.04104898613852042
g101
(g105
S'\xc3\xf5(\\\x8fnu@'
p2256
tp2257
Rp2258
tp2259
a(I638
I1000
I270
F0.04084374120782782
g101
(g105
S'\x1f\x85\xebQ\xb8Vu@'
p2260
tp2261
Rp2262
tp2263
a(I639
I1000
I190
F0.040639522501788684
g101
(g105
S'R\xb8\x1e\x85\xeb1u@'
p2264
tp2265
Rp2266
tp2267
a(I640
I1000
I190
F0.04043632488927974
g101
(g105
S'\xf6(\\\x8f\xc2\x01u@'
p2268
tp2269
Rp2270
tp2271
a(I641
I1000
I219
F0.04023414326483334
g101
(g105
S'\x8f\xc2\xf5(\\\xe3t@'
p2272
tp2273
Rp2274
tp2275
a(I642
I1000
I350
F0.040032972548509176
g101
(g105
S'fffff\xb6t@'
p2276
tp2277
Rp2278
tp2279
a(I643
I1000
I269
F0.03983280768576663
g101
(g105
S'\xf6(\\\x8f\xc2\xb1t@'
p2280
tp2281
Rp2282
tp2283
a(I644
I1000
I342
F0.0396336436473378
g101
(g105
S'\x1f\x85\xebQ\xb8\xa2t@'
p2284
tp2285
Rp2286
tp2287
a(I645
I1000
I484
F0.039435475429101106
g101
(g105
S'\\\x8f\xc2\xf5(\xb0t@'
p2288
tp2289
Rp2290
tp2291
a(I646
I1000
I500
F0.039238298051955604
g101
(g105
S'\x14\xaeG\xe1z\xc8t@'
p2292
tp2293
Rp2294
tp2295
a(I647
I1000
I500
F0.03904210656169583
g101
(g105
S'{\x14\xaeG\xe1\xeat@'
p2296
tp2297
Rp2298
tp2299
a(I648
I1000
I500
F0.03884689602888735
g101
(g105
S'\x14\xaeG\xe1z\x00u@'
p2300
tp2301
Rp2302
tp2303
a(I649
I1000
I409
F0.03865266154874291
g101
(g105
S'{\x14\xaeG\xe1\nu@'
p2304
tp2305
Rp2306
tp2307
a(I650
I1000
I302
F0.0384593982409992
g101
(g105
S'fffff&u@'
p2308
tp2309
Rp2310
tp2311
a(I651
I1000
I281
F0.038267101249794204
g101
(g105
S'\x00\x00\x00\x00\x00 u@'
p2312
tp2313
Rp2314
tp2315
a(I652
I1000
I363
F0.03807576574354523
g101
(g105
S'\xb8\x1e\x85\xebQ\x18u@'
p2316
tp2317
Rp2318
tp2319
a(I653
I1000
I500
F0.037885386914827505
g101
(g105
S'fffff\x02u@'
p2320
tp2321
Rp2322
tp2323
a(I654
I1000
I383
F0.037695959980253366
g101
(g105
S'{\x14\xaeG\xe1\nu@'
p2324
tp2325
Rp2326
tp2327
a(I655
I1000
I419
F0.0375074801803521
g101
(g105
S'=\n\xd7\xa3p\ru@'
p2328
tp2329
Rp2330
tp2331
a(I656
I1000
I385
F0.03731994277945034
g101
(g105
S'\x14\xaeG\xe1z\x00u@'
p2332
tp2333
Rp2334
tp2335
a(I657
I1000
I319
F0.03713334306555309
g101
(g105
S'33333\xf7t@'
p2336
tp2337
Rp2338
tp2339
a(I658
I1000
I306
F0.03694767635022533
g101
(g105
S'fffff\xfet@'
p2340
tp2341
Rp2342
tp2343
a(I659
I1000
I325
F0.0367629379684742
g101
(g105
S'\xc3\xf5(\\\x8f\xe6t@'
p2344
tp2345
Rp2346
tp2347
a(I660
I1000
I301
F0.03657912327863183
g101
(g105
S'\xc3\xf5(\\\x8f\xcat@'
p2348
tp2349
Rp2350
tp2351
a(I661
I1000
I246
F0.03639622766223867
g101
(g105
S'\x1f\x85\xebQ\xb8\xaat@'
p2352
tp2353
Rp2354
tp2355
a(I662
I1000
I333
F0.036214246523927476
g101
(g105
S')\\\x8f\xc2\xf5\x84t@'
p2356
tp2357
Rp2358
tp2359
a(I663
I1000
I286
F0.03603317529130784
g101
(g105
S'\x9a\x99\x99\x99\x99yt@'
p2360
tp2361
Rp2362
tp2363
a(I664
I1000
I284
F0.0358530094148513
g101
(g105
S'H\xe1z\x14\xaeWt@'
p2364
tp2365
Rp2366
tp2367
a(I665
I1000
I412
F0.03567374436777704
g101
(g105
S'\xc3\xf5(\\\x8fBt@'
p2368
tp2369
Rp2370
tp2371
a(I666
I1000
I500
F0.03549537564593815
g101
(g105
S'\xf6(\\\x8f\xc29t@'
p2372
tp2373
Rp2374
tp2375
a(I667
I1000
I407
F0.03531789876770846
g101
(g105
S'R\xb8\x1e\x85\xebQt@'
p2376
tp2377
Rp2378
tp2379
a(I668
I1000
I284
F0.035141309273869915
g101
(g105
S'\xd7\xa3p=\nCt@'
p2380
tp2381
Rp2382
tp2383
a(I669
I1000
I320
F0.034965602727500565
g101
(g105
S'\n\xd7\xa3p=>t@'
p2384
tp2385
Rp2386
tp2387
a(I670
I1000
I266
F0.03479077471386306
g101
(g105
S'\x8f\xc2\xf5(\\Gt@'
p2388
tp2389
Rp2390
tp2391
a(I671
I1000
I333
F0.034616820840293744
g101
(g105
S'\xcd\xcc\xcc\xcc\xcc<t@'
p2392
tp2393
Rp2394
tp2395
a(I672
I1000
I289
F0.03444373673609227
g101
(g105
S'\xa4p=\n\xd7+t@'
p2396
tp2397
Rp2398
tp2399
a(I673
I1000
I255
F0.03427151805241181
g101
(g105
S'\xaeG\xe1z\x14\nt@'
p2400
tp2401
Rp2402
tp2403
a(I674
I1000
I219
F0.03410016046214975
g101
(g105
S'\\\x8f\xc2\xf5(\xfcs@'
p2404
tp2405
Rp2406
tp2407
a(I675
I1000
I253
F0.033929659659839004
g101
(g105
S'\x14\xaeG\xe1z\xd4s@'
p2408
tp2409
Rp2410
tp2411
a(I676
I1000
I278
F0.03376001136153981
g101
(g105
S')\\\x8f\xc2\xf5\xacs@'
p2412
tp2413
Rp2414
tp2415
a(I677
I1000
I302
F0.03359121130473211
g101
(g105
S'=\n\xd7\xa3p\x89s@'
p2416
tp2417
Rp2418
tp2419
a(I678
I1000
I320
F0.03342325524820845
g101
(g105
S'\xf6(\\\x8f\xc2is@'
p2420
tp2421
Rp2422
tp2423
a(I679
I1000
I349
F0.033256138971967414
g101
(g105
S')\\\x8f\xc2\xf5Ls@'
p2424
tp2425
Rp2426
tp2427
a(I680
I1000
I391
F0.03308985827710758
g101
(g105
S'\xcd\xcc\xcc\xcc\xcc4s@'
p2428
tp2429
Rp2430
tp2431
a(I681
I1000
I432
F0.03292440898572204
g101
(g105
S')\\\x8f\xc2\xf5Ds@'
p2432
tp2433
Rp2434
tp2435
a(I682
I1000
I330
F0.03275978694079343
g101
(g105
S'\xecQ\xb8\x1e\x85_s@'
p2436
tp2437
Rp2438
tp2439
a(I683
I1000
I439
F0.03259598800608946
g101
(g105
S'\xf6(\\\x8f\xc2as@'
p2440
tp2441
Rp2442
tp2443
a(I684
I1000
I500
F0.03243300806605901
g101
(g105
S'\x1f\x85\xebQ\xb8rs@'
p2444
tp2445
Rp2446
tp2447
a(I685
I1000
I326
F0.03227084302572872
g101
(g105
S'\x9a\x99\x99\x99\x99\x9ds@'
p2448
tp2449
Rp2450
tp2451
a(I686
I1000
I500
F0.03210948881060007
g101
(g105
S'\n\xd7\xa3p=\x9es@'
p2452
tp2453
Rp2454
tp2455
a(I687
I1000
I500
F0.03194894136654707
g101
(g105
S'\xaeG\xe1z\x14\xbes@'
p2456
tp2457
Rp2458
tp2459
a(I688
I1000
I500
F0.03178919665971434
g101
(g105
S'\x85\xebQ\xb8\x1e\xd5s@'
p2460
tp2461
Rp2462
tp2463
a(I689
I1000
I500
F0.03163025067641576
g101
(g105
S'\\\x8f\xc2\xf5(\xf4s@'
p2464
tp2465
Rp2466
tp2467
a(I690
I1000
I500
F0.03147209942303368
g101
(g105
S'H\xe1z\x14\xae\x17t@'
p2468
tp2469
Rp2470
tp2471
a(I691
I1000
I500
F0.03131473892591851
g101
(g105
S'\xf6(\\\x8f\xc2It@'
p2472
tp2473
Rp2474
tp2475
a(I692
I1000
I500
F0.031158165231288917
g101
(g105
S'\xf6(\\\x8f\xc2}t@'
p2476
tp2477
Rp2478
tp2479
a(I693
I1000
I350
F0.031002374405132472
g101
(g105
S'\xd7\xa3p=\n\xaft@'
p2480
tp2481
Rp2482
tp2483
a(I694
I1000
I480
F0.03084736253310681
g101
(g105
S'\xe1z\x14\xaeG\xc5t@'
p2484
tp2485
Rp2486
tp2487
a(I695
I1000
I500
F0.030693125720441274
g101
(g105
S'fffff\xf2t@'
p2488
tp2489
Rp2490
tp2491
a(I696
I1000
I500
F0.030539660091839067
g101
(g105
S'\xb8\x1e\x85\xebQ u@'
p2492
tp2493
Rp2494
tp2495
a(I697
I1000
I500
F0.030386961791379872
g101
(g105
S'\xecQ\xb8\x1e\x85Ou@'
p2496
tp2497
Rp2498
tp2499
a(I698
I1000
I495
F0.03023502698242297
g101
(g105
S'\x8f\xc2\xf5(\\\x7fu@'
p2500
tp2501
Rp2502
tp2503
a(I699
I1000
I201
F0.030083851847510855
g101
(g105
S'\x9a\x99\x99\x99\x99\xadu@'
p2504
tp2505
Rp2506
tp2507
a(I700
I1000
I186
F0.0299334325882733
g101
(g105
S'\xcd\xcc\xcc\xcc\xcc\xacu@'
p2508
tp2509
Rp2510
tp2511
a(I701
I1000
I500
F0.029783765425331933
g101
(g105
S'{\x14\xaeG\xe1\xa2u@'
p2512
tp2513
Rp2514
tp2515
a(I702
I1000
I267
F0.029634846598205273
g101
(g105
S'\xc3\xf5(\\\x8f\xc6u@'
p2516
tp2517
Rp2518
tp2519
a(I703
I1000
I351
F0.029486672365214246
g101
(g105
S'33333\xcfu@'
p2520
tp2521
Rp2522
tp2523
a(I704
I1000
I500
F0.029339239003388175
g101
(g105
S'H\xe1z\x14\xae\xe7u@'
p2524
tp2525
Rp2526
tp2527
a(I705
I1000
I454
F0.029192542808371233
g101
(g105
S'\n\xd7\xa3p=\nv@'
p2528
tp2529
Rp2530
tp2531
a(I706
I1000
I500
F0.029046580094329377
g101
(g105
S'\x14\xaeG\xe1z v@'
p2532
tp2533
Rp2534
tp2535
a(I707
I1000
I500
F0.02890134719385773
g101
(g105
S'33333Cv@'
p2536
tp2537
Rp2538
tp2539
a(I708
I1000
I489
F0.02875684045788844
g101
(g105
S'\xe1z\x14\xaeGqv@'
p2540
tp2541
Rp2542
tp2543
a(I709
I1000
I500
F0.028613056255598998
g101
(g105
S'\xecQ\xb8\x1e\x85\xa3v@'
p2544
tp2545
Rp2546
tp2547
a(I710
I1000
I438
F0.028469990974321003
g101
(g105
S'R\xb8\x1e\x85\xeb\xcdv@'
p2548
tp2549
Rp2550
tp2551
a(I711
I1000
I500
F0.028327641019449398
g101
(g105
S'\n\xd7\xa3p=\xdav@'
p2552
tp2553
Rp2554
tp2555
a(I712
I1000
I500
F0.02818600281435215
g101
(g105
S'\n\xd7\xa3p=\xdav@'
p2556
tp2557
Rp2558
tp2559
a(I713
I1000
I500
F0.028045072800280388
g101
(g105
S'\xecQ\xb8\x1e\x85\xf7v@'
p2560
tp2561
Rp2562
tp2563
a(I714
I1000
I500
F0.027904847436278985
g101
(g105
S'\x1f\x85\xebQ\xb8\x06w@'
p2564
tp2565
Rp2566
tp2567
a(I715
I1000
I500
F0.02776532319909759
g101
(g105
S'\xe1z\x14\xaeG\x15w@'
p2568
tp2569
Rp2570
tp2571
a(I716
I1000
I444
F0.0276264965831021
g101
(g105
S'fffff6w@'
p2572
tp2573
Rp2574
tp2575
a(I717
I1000
I333
F0.027488364100186593
g101
(g105
S'\xe1z\x14\xaeG5w@'
p2576
tp2577
Rp2578
tp2579
a(I718
I1000
I293
F0.02735092227968566
g101
(g105
S'\xc3\xf5(\\\x8f6w@'
p2580
tp2581
Rp2582
tp2583
a(I719
I1000
I351
F0.027214167668287232
g101
(g105
S'\\\x8f\xc2\xf5(8w@'
p2584
tp2585
Rp2586
tp2587
a(I720
I1000
I500
F0.027078096829945796
g101
(g105
S'\xecQ\xb8\x1e\x85;w@'
p2588
tp2589
Rp2590
tp2591
a(I721
I1000
I380
F0.026942706345796066
g101
(g105
S'\x1f\x85\xebQ\xb8bw@'
p2592
tp2593
Rp2594
tp2595
a(I722
I1000
I302
F0.026807992814067084
g101
(g105
S'\xe1z\x14\xaeGyw@'
p2596
tp2597
Rp2598
tp2599
a(I723
I1000
I361
F0.026673952849996747
g101
(g105
S'\xd7\xa3p=\nsw@'
p2600
tp2601
Rp2602
tp2603
a(I724
I1000
I495
F0.026540583085746763
g101
(g105
S'R\xb8\x1e\x85\xebiw@'
p2604
tp2605
Rp2606
tp2607
a(I725
I1000
I295
F0.02640788017031803
g101
(g105
S'\x00\x00\x00\x00\x00\x8cw@'
p2608
tp2609
Rp2610
tp2611
a(I726
I1000
I471
F0.02627584076946644
g101
(g105
S'\xaeG\xe1z\x14\x8ew@'
p2612
tp2613
Rp2614
tp2615
a(I727
I1000
I500
F0.026144461565619108
g101
(g105
S'fffff\xaew@'
p2616
tp2617
Rp2618
tp2619
a(I728
I1000
I500
F0.026013739257791012
g101
(g105
S'\xa4p=\n\xd7\xcbw@'
p2620
tp2621
Rp2622
tp2623
a(I729
I1000
I500
F0.025883670561502058
g101
(g105
S'\xd7\xa3p=\n\xe3w@'
p2624
tp2625
Rp2626
tp2627
a(I730
I1000
I204
F0.025754252208694546
g101
(g105
S'\x8f\xc2\xf5(\\\x03x@'
p2628
tp2629
Rp2630
tp2631
a(I731
I1000
I200
F0.025625480947651075
g101
(g105
S'fffff\xf2w@'
p2632
tp2633
Rp2634
tp2635
a(I732
I1000
I500
F0.02549735354291282
g101
(g105
S'\xc3\xf5(\\\x8f\xd6w@'
p2636
tp2637
Rp2638
tp2639
a(I733
I1000
I264
F0.025369866775198254
g101
(g105
S'R\xb8\x1e\x85\xeb\xe5w@'
p2640
tp2641
Rp2642
tp2643
a(I734
I1000
I217
F0.025243017441322263
g101
(g105
S'\x9a\x99\x99\x99\x99\xe5w@'
p2644
tp2645
Rp2646
tp2647
a(I735
I1000
I229
F0.02511680235411565
g101
(g105
S'H\xe1z\x14\xae\xd7w@'
p2648
tp2649
Rp2650
tp2651
a(I736
I1000
I323
F0.02499121834234507
g101
(g105
S')\\\x8f\xc2\xf5\xd4w@'
p2652
tp2653
Rp2654
tp2655
a(I737
I1000
I216
F0.024866262250633347
g101
(g105
S'\x9a\x99\x99\x99\x99\xddw@'
p2656
tp2657
Rp2658
tp2659
a(I738
I1000
I414
F0.02474193093938018
g101
(g105
S'\x00\x00\x00\x00\x00\xc8w@'
p2660
tp2661
Rp2662
tp2663
a(I739
I1000
I209
F0.02461822128468328
g101
(g105
S'\xd7\xa3p=\n\xdfw@'
p2664
tp2665
Rp2666
tp2667
a(I740
I1000
I185
F0.024495130178259862
g101
(g105
S'\xaeG\xe1z\x14\xe2w@'
p2668
tp2669
Rp2670
tp2671
a(I741
I1000
I198
F0.024372654527368563
g101
(g105
S'\xe1z\x14\xaeG\xe1w@'
p2672
tp2673
Rp2674
tp2675
a(I742
I1000
I231
F0.02425079125473172
g101
(g105
S'R\xb8\x1e\x85\xeb\xddw@'
p2676
tp2677
Rp2678
tp2679
a(I743
I1000
I231
F0.02412953729845806
g101
(g105
S'{\x14\xaeG\xe1\xcaw@'
p2680
tp2681
Rp2682
tp2683
a(I744
I1000
I260
F0.024008889611965768
g101
(g105
S'\xcd\xcc\xcc\xcc\xcc\xc4w@'
p2684
tp2685
Rp2686
tp2687
a(I745
I1000
I240
F0.02388884516390594
g101
(g105
S'H\xe1z\x14\xae\xb7w@'
p2688
tp2689
Rp2690
tp2691
a(I746
I1000
I209
F0.02376940093808641
g101
(g105
S'q=\n\xd7\xa3\x90w@'
p2692
tp2693
Rp2694
tp2695
a(I747
I1000
I224
F0.02365055393339598
g101
(g105
S'\xaeG\xe1z\x14bw@'
p2696
tp2697
Rp2698
tp2699
a(I748
I1000
I239
F0.023532301163729
g101
(g105
S'R\xb8\x1e\x85\xeb5w@'
p2700
tp2701
Rp2702
tp2703
a(I749
I1000
I302
F0.023414639657910356
g101
(g105
S'\\\x8f\xc2\xf5(\x0cw@'
p2704
tp2705
Rp2706
tp2707
a(I750
I1000
I318
F0.023297566459620805
g101
(g105
S'\xd7\xa3p=\n\xfbv@'
p2708
tp2709
Rp2710
tp2711
a(I751
I1000
I387
F0.0231810786273227
g101
(g105
S'\x9a\x99\x99\x99\x99\xfdv@'
p2712
tp2713
Rp2714
tp2715
a(I752
I1000
I500
F0.02306517323418609
g101
(g105
S'\xc3\xf5(\\\x8f\x0ew@'
p2716
tp2717
Rp2718
tp2719
a(I753
I1000
I376
F0.02294984736801516
g101
(g105
S'\x14\xaeG\xe1z$w@'
p2720
tp2721
Rp2722
tp2723
a(I754
I1000
I299
F0.022835098131175083
g101
(g105
S'q=\n\xd7\xa3\x10w@'
p2724
tp2725
Rp2726
tp2727
a(I755
I1000
I301
F0.022720922640519208
g101
(g105
S'33333\x03w@'
p2728
tp2729
Rp2730
tp2731
a(I756
I1000
I278
F0.022607318027316612
g101
(g105
S'\xb8\x1e\x85\xebQ\xf0v@'
p2732
tp2733
Rp2734
tp2735
a(I757
I1000
I265
F0.02249428143718003
g101
(g105
S'33333\xdfv@'
p2736
tp2737
Rp2738
tp2739
a(I758
I1000
I241
F0.02238181002999413
g101
(g105
S'\xc3\xf5(\\\x8f\xd6v@'
p2740
tp2741
Rp2742
tp2743
a(I759
I1000
I239
F0.02226990097984416
g101
(g105
S'\\\x8f\xc2\xf5(\xccv@'
p2744
tp2745
Rp2746
tp2747
a(I760
I1000
I227
F0.02215855147494494
g101
(g105
S'fffff\xbev@'
p2748
tp2749
Rp2750
tp2751
a(I761
I1000
I209
F0.022047758717570216
g101
(g105
S'\xc3\xf5(\\\x8f\xb2v@'
p2752
tp2753
Rp2754
tp2755
a(I762
I1000
I254
F0.021937519923982365
g101
(g105
S'q=\n\xd7\xa3\xacv@'
p2756
tp2757
Rp2758
tp2759
a(I763
I1000
I239
F0.021827832324362452
g101
(g105
S'\x00\x00\x00\x00\x00\xa0v@'
p2760
tp2761
Rp2762
tp2763
a(I764
I1000
I264
F0.02171869316274064
g101
(g105
S'\x14\xaeG\xe1z\x98v@'
p2764
tp2765
Rp2766
tp2767
a(I765
I1000
I306
F0.021610099696926937
g101
(g105
S'\xe1z\x14\xaeG\x95v@'
p2768
tp2769
Rp2770
tp2771
a(I766
I1000
I340
F0.021502049198442303
g101
(g105
S'\xb8\x1e\x85\xebQ\x84v@'
p2772
tp2773
Rp2774
tp2775
a(I767
I1000
I256
F0.021394538952450092
g101
(g105
S'\x1f\x85\xebQ\xb8jv@'
p2776
tp2777
Rp2778
tp2779
a(I768
I1000
I297
F0.02128756625768784
g101
(g105
S'\xc3\xf5(\\\x8fRv@'
p2780
tp2781
Rp2782
tp2783
a(I769
I1000
I311
F0.021181128426399402
g101
(g105
S'q=\n\xd7\xa3Tv@'
p2784
tp2785
Rp2786
tp2787
a(I770
I1000
I253
F0.021075222784267406
g101
(g105
S'33333Sv@'
p2788
tp2789
Rp2790
tp2791
a(I771
I1000
I300
F0.020969846670346067
g101
(g105
S'\x85\xebQ\xb8\x1eQv@'
p2792
tp2793
Rp2794
tp2795
a(I772
I1000
I321
F0.020864997436994336
g101
(g105
S'\xa4p=\n\xd7Kv@'
p2796
tp2797
Rp2798
tp2799
a(I773
I1000
I259
F0.020760672449809364
g101
(g105
S')\\\x8f\xc2\xf5Pv@'
p2800
tp2801
Rp2802
tp2803
a(I774
I1000
I153
F0.020656869087560318
g101
(g105
S'\x9a\x99\x99\x99\x99Qv@'
p2804
tp2805
Rp2806
tp2807
a(I775
I1000
I168
F0.020553584742122516
g101
(g105
S'\xd7\xa3p=\nGv@'
p2808
tp2809
Rp2810
tp2811
a(I776
I1000
I273
F0.020450816818411904
g101
(g105
S'=\n\xd7\xa3p9v@'
p2812
tp2813
Rp2814
tp2815
a(I777
I1000
I500
F0.020348562734319845
g101
(g105
S'q=\n\xd7\xa38v@'
p2816
tp2817
Rp2818
tp2819
a(I778
I1000
I500
F0.020246819920648244
g101
(g105
S'\xb8\x1e\x85\xebQXv@'
p2820
tp2821
Rp2822
tp2823
a(I779
I1000
I500
F0.020145585821045003
g101
(g105
S'\x85\xebQ\xb8\x1euv@'
p2824
tp2825
Rp2826
tp2827
a(I780
I1000
I500
F0.020044857891939778
g101
(g105
S'\xe1z\x14\xaeG\x8dv@'
p2828
tp2829
Rp2830
tp2831
a(I781
I1000
I500
F0.01994463360248008
g101
(g105
S'\x1f\x85\xebQ\xb8\x9ev@'
p2832
tp2833
Rp2834
tp2835
a(I782
I1000
I500
F0.019844910434467677
g101
(g105
S'\x9a\x99\x99\x99\x99\xa9v@'
p2836
tp2837
Rp2838
tp2839
a(I783
I1000
I500
F0.01974568588229534
g101
(g105
S'\xcd\xcc\xcc\xcc\xcc\xc4v@'
p2840
tp2841
Rp2842
tp2843
a(I784
I1000
I481
F0.019646957452883862
g101
(g105
S'\xc3\xf5(\\\x8f\xcev@'
p2844
tp2845
Rp2846
tp2847
a(I785
I1000
I189
F0.019548722665619443
g101
(g105
S'\xecQ\xb8\x1e\x85\xcbv@'
p2848
tp2849
Rp2850
tp2851
a(I786
I1000
I187
F0.019450979052291345
g101
(g105
S'\x9a\x99\x99\x99\x99\xb5v@'
p2852
tp2853
Rp2854
tp2855
a(I787
I1000
I298
F0.01935372415702989
g101
(g105
S'\xecQ\xb8\x1e\x85\x83v@'
p2856
tp2857
Rp2858
tp2859
a(I788
I1000
I470
F0.01925695553624474
g101
(g105
S'33333cv@'
p2860
tp2861
Rp2862
tp2863
a(I789
I1000
I500
F0.019160670758563515
g101
(g105
S'fffff^v@'
p2864
tp2865
Rp2866
tp2867
a(I790
I1000
I500
F0.0190648674047707
g101
(g105
S'fffff^v@'
p2868
tp2869
Rp2870
tp2871
a(I791
I1000
I351
F0.018969543067746845
g101
(g105
S'fffff^v@'
p2872
tp2873
Rp2874
tp2875
a(I792
I1000
I500
F0.01887469535240811
g101
(g105
S'\xc3\xf5(\\\x8fFv@'
p2876
tp2877
Rp2878
tp2879
a(I793
I1000
I500
F0.01878032187564607
g101
(g105
S'\xc3\xf5(\\\x8fFv@'
p2880
tp2881
Rp2882
tp2883
a(I794
I1000
I500
F0.01868642026626784
g101
(g105
S'\xc3\xf5(\\\x8f^v@'
p2884
tp2885
Rp2886
tp2887
a(I795
I1000
I500
F0.0185929881649365
g101
(g105
S'\xf6(\\\x8f\xc2av@'
p2888
tp2889
Rp2890
tp2891
a(I796
I1000
I500
F0.018500023224111817
g101
(g105
S'\xf6(\\\x8f\xc2av@'
p2892
tp2893
Rp2894
tp2895
a(I797
I1000
I493
F0.018407523107991257
g101
(g105
S'\xf6(\\\x8f\xc2av@'
p2896
tp2897
Rp2898
tp2899
a(I798
I1000
I500
F0.0183154854924513
g101
(g105
S'q=\n\xd7\xa3`v@'
p2900
tp2901
Rp2902
tp2903
a(I799
I1000
I434
F0.018223908064989046
g101
(g105
S'=\n\xd7\xa3pav@'
p2904
tp2905
Rp2906
tp2907
a(I800
I1000
I500
F0.0181327885246641
g101
(g105
S'\x1f\x85\xebQ\xb8\x86v@'
p2908
tp2909
Rp2910
tp2911
a(I801
I1000
I500
F0.01804212458204078
g101
(g105
S')\\\x8f\xc2\xf5\xb8v@'
p2912
tp2913
Rp2914
tp2915
a(I802
I1000
I335
F0.017951913959130577
g101
(g105
S')\\\x8f\xc2\xf5\xb8v@'
p2916
tp2917
Rp2918
tp2919
a(I803
I1000
I500
F0.017862154389334924
g101
(g105
S'\xa4p=\n\xd7\xc3v@'
p2920
tp2921
Rp2922
tp2923
a(I804
I1000
I500
F0.017772843617388248
g101
(g105
S'H\xe1z\x14\xae\xdbv@'
p2924
tp2925
Rp2926
tp2927
a(I805
I1000
I500
F0.017683979399301306
g101
(g105
S'H\xe1z\x14\xae\xdbv@'
p2928
tp2929
Rp2930
tp2931
a(I806
I1000
I430
F0.0175955595023048
g101
(g105
S'\xd7\xa3p=\n\xe3v@'
p2932
tp2933
Rp2934
tp2935
a(I807
I1000
I500
F0.017507581704793274
g101
(g105
S'\xa4p=\n\xd7\xd7v@'
p2936
tp2937
Rp2938
tp2939
a(I808
I1000
I393
F0.017420043796269307
g101
(g105
S'\xa4p=\n\xd7\xd7v@'
p2940
tp2941
Rp2942
tp2943
a(I809
I1000
I500
F0.01733294357728796
g101
(g105
S'\x14\xaeG\xe1z\xc8v@'
p2944
tp2945
Rp2946
tp2947
a(I810
I1000
I291
F0.01724627885940152
g101
(g105
S'\x14\xaeG\xe1z\xc8v@'
p2948
tp2949
Rp2950
tp2951
a(I811
I1000
I263
F0.01716004746510451
g101
(g105
S')\\\x8f\xc2\xf5\xb0v@'
p2952
tp2953
Rp2954
tp2955
a(I812
I1000
I302
F0.017074247227778987
g101
(g105
S'\xd7\xa3p=\n\x8bv@'
p2956
tp2957
Rp2958
tp2959
a(I813
I1000
I360
F0.016988875991640093
g101
(g105
S'\x8f\xc2\xf5(\\kv@'
p2960
tp2961
Rp2962
tp2963
a(I814
I1000
I500
F0.016903931611681893
g101
(g105
S')\\\x8f\xc2\xf5Tv@'
p2964
tp2965
Rp2966
tp2967
a(I815
I1000
I323
F0.016819411953623485
g101
(g105
S')\\\x8f\xc2\xf5Tv@'
p2968
tp2969
Rp2970
tp2971
a(I816
I1000
I329
F0.01673531489385537
g101
(g105
S'q=\n\xd7\xa38v@'
p2972
tp2973
Rp2974
tp2975
a(I817
I1000
I497
F0.016651638319386094
g101
(g105
S'\n\xd7\xa3p=&v@'
p2976
tp2977
Rp2978
tp2979
a(I818
I1000
I288
F0.016568380127789162
g101
(g105
S'\x14\xaeG\xe1z@v@'
p2980
tp2981
Rp2982
tp2983
a(I819
I1000
I212
F0.016485538227150216
g101
(g105
S'H\xe1z\x14\xae?v@'
p2984
tp2985
Rp2986
tp2987
a(I820
I1000
I325
F0.016403110536014464
g101
(g105
S'=\n\xd7\xa3p)v@'
p2988
tp2989
Rp2990
tp2991
a(I821
I1000
I444
F0.01632109498333439
g101
(g105
S'=\n\xd7\xa3p\rv@'
p2992
tp2993
Rp2994
tp2995
a(I822
I1000
I377
F0.01623948950841772
g101
(g105
S'H\xe1z\x14\xae\x17v@'
p2996
tp2997
Rp2998
tp2999
a(I823
I1000
I423
F0.016158292060875632
g101
(g105
S'H\xe1z\x14\xae#v@'
p3000
tp3001
Rp3002
tp3003
a(I824
I1000
I315
F0.016077500600571254
g101
(g105
S'\x9a\x99\x99\x99\x99-v@'
p3004
tp3005
Rp3006
tp3007
a(I825
I1000
I500
F0.015997113097568398
g101
(g105
S'\xcd\xcc\xcc\xcc\xcc\x10v@'
p3008
tp3009
Rp3010
tp3011
a(I826
I1000
I500
F0.015917127532080556
g101
(g105
S'\x9a\x99\x99\x99\x991v@'
p3012
tp3013
Rp3014
tp3015
a(I827
I1000
I500
F0.015837541894420153
g101
(g105
S'\n\xd7\xa3p=6v@'
p3016
tp3017
Rp3018
tp3019
a(I828
I1000
I301
F0.015758354184948052
g101
(g105
S'\n\xd7\xa3p=6v@'
p3020
tp3021
Rp3022
tp3023
a(I829
I1000
I320
F0.015679562414023313
g101
(g105
S'fffff\x16v@'
p3024
tp3025
Rp3026
tp3027
a(I830
I1000
I342
F0.015601164601953196
g101
(g105
S'\x9a\x99\x99\x99\x99\xf9u@'
p3028
tp3029
Rp3030
tp3031
a(I831
I1000
I500
F0.015523158778943431
g101
(g105
S'H\xe1z\x14\xae\x0fv@'
p3032
tp3033
Rp3034
tp3035
a(I832
I1000
I310
F0.015445542985048714
g101
(g105
S'H\xe1z\x14\xae?v@'
p3036
tp3037
Rp3038
tp3039
a(I833
I1000
I404
F0.015368315270123471
g101
(g105
S'\xe1z\x14\xaeG!v@'
p3040
tp3041
Rp3042
tp3043
a(I834
I1000
I500
F0.015291473693772853
g101
(g105
S'H\xe1z\x14\xae7v@'
p3044
tp3045
Rp3046
tp3047
a(I835
I1000
I500
F0.015215016325303988
g101
(g105
S')\\\x8f\xc2\xf5dv@'
p3048
tp3049
Rp3050
tp3051
a(I836
I1000
I500
F0.015138941243677468
g101
(g105
S'\xb8\x1e\x85\xebQ\x90v@'
p3052
tp3053
Rp3054
tp3055
a(I837
I1000
I473
F0.015063246537459081
g101
(g105
S'q=\n\xd7\xa3\xacv@'
p3056
tp3057
Rp3058
tp3059
a(I838
I1000
I329
F0.014987930304771786
g101
(g105
S'\xf6(\\\x8f\xc2\xd5v@'
p3060
tp3061
Rp3062
tp3063
a(I839
I1000
I500
F0.014912990653247927
g101
(g105
S'\\\x8f\xc2\xf5(\xc8v@'
p3064
tp3065
Rp3066
tp3067
a(I840
I1000
I500
F0.014838425699981688
g101
(g105
S'\x1f\x85\xebQ\xb8\xf6v@'
p3068
tp3069
Rp3070
tp3071
a(I841
I1000
I500
F0.01476423357148178
g101
(g105
S'\x85\xebQ\xb8\x1e)w@'
p3072
tp3073
Rp3074
tp3075
a(I842
I1000
I472
F0.014690412403624372
g101
(g105
S'=\n\xd7\xa3pYw@'
p3076
tp3077
Rp3078
tp3079
a(I843
I1000
I500
F0.01461696034160625
g101
(g105
S'\x00\x00\x00\x00\x00\x80w@'
p3080
tp3081
Rp3082
tp3083
a(I844
I1000
I500
F0.01454387553989822
g101
(g105
S'\xd7\xa3p=\n\xabw@'
p3084
tp3085
Rp3086
tp3087
a(I845
I1000
I500
F0.014471156162198729
g101
(g105
S'=\n\xd7\xa3p\xd1w@'
p3088
tp3089
Rp3090
tp3091
a(I846
I1000
I500
F0.014398800381387735
g101
(g105
S'\xd7\xa3p=\n\xfbw@'
p3092
tp3093
Rp3094
tp3095
a(I847
I1000
I469
F0.014326806379480797
g101
(g105
S'\x9a\x99\x99\x99\x99)x@'
p3096
tp3097
Rp3098
tp3099
a(I848
I1000
I500
F0.014255172347583393
g101
(g105
S'\xcd\xcc\xcc\xcc\xccPx@'
p3100
tp3101
Rp3102
tp3103
a(I849
I1000
I401
F0.014183896485845476
g101
(g105
S'\xc3\xf5(\\\x8fzx@'
p3104
tp3105
Rp3106
tp3107
a(I850
I1000
I500
F0.014112977003416249
g101
(g105
S'fffff\x8ax@'
p3108
tp3109
Rp3110
tp3111
a(I851
I1000
I500
F0.014042412118399168
g101
(g105
S'\xecQ\xb8\x1e\x85\xa7x@'
p3112
tp3113
Rp3114
tp3115
a(I852
I1000
I355
F0.013972200057807173
g101
(g105
S'\x9a\x99\x99\x99\x99\xb9x@'
p3116
tp3117
Rp3118
tp3119
a(I853
I1000
I500
F0.013902339057518137
g101
(g105
S'fffff\xa2x@'
p3120
tp3121
Rp3122
tp3123
a(I854
I1000
I456
F0.013832827362230547
g101
(g105
S'\n\xd7\xa3p=\xb6x@'
p3124
tp3125
Rp3126
tp3127
a(I855
I1000
I500
F0.013763663225419394
g101
(g105
S'\x8f\xc2\xf5(\\\xcfx@'
p3128
tp3129
Rp3130
tp3131
a(I856
I1000
I500
F0.013694844909292297
g101
(g105
S'33333\xefx@'
p3132
tp3133
Rp3134
tp3135
a(I857
I1000
I500
F0.013626370684745835
g101
(g105
S'\x1f\x85\xebQ\xb8\x12y@'
p3136
tp3137
Rp3138
tp3139
a(I858
I1000
I493
F0.013558238831322105
g101
(g105
S'\xb8\x1e\x85\xebQ8y@'
p3140
tp3141
Rp3142
tp3143
a(I859
I1000
I448
F0.013490447637165495
g101
(g105
S'q=\n\xd7\xa3`y@'
p3144
tp3145
Rp3146
tp3147
a(I860
I1000
I500
F0.013422995398979667
g101
(g105
S'\xaeG\xe1z\x14\x82y@'
p3148
tp3149
Rp3150
tp3151
a(I861
I1000
I500
F0.013355880421984769
g101
(g105
S'\xf6(\\\x8f\xc2\xady@'
p3152
tp3153
Rp3154
tp3155
a(I862
I1000
I265
F0.013289101019874844
g101
(g105
S'\xb8\x1e\x85\xebQ\xdcy@'
p3156
tp3157
Rp3158
tp3159
a(I863
I1000
I256
F0.01322265551477547
g101
(g105
S'\xaeG\xe1z\x14\xdey@'
p3160
tp3161
Rp3162
tp3163
a(I864
I1000
I254
F0.013156542237201594
g101
(g105
S'\xcd\xcc\xcc\xcc\xcc\xe0y@'
p3164
tp3165
Rp3166
tp3167
a(I865
I1000
I348
F0.013090759526015586
g101
(g105
S'33333\xdfy@'
p3168
tp3169
Rp3170
tp3171
a(I866
I1000
I356
F0.013025305728385507
g101
(g105
S'R\xb8\x1e\x85\xeb\xe5y@'
p3172
tp3173
Rp3174
tp3175
a(I867
I1000
I309
F0.01296017919974358
g101
(g105
S'\x14\xaeG\xe1z\xe8y@'
p3176
tp3177
Rp3178
tp3179
a(I868
I1000
I500
F0.012895378303744862
g101
(g105
S')\\\x8f\xc2\xf5\xf0y@'
p3180
tp3181
Rp3182
tp3183
a(I869
I1000
I500
F0.012830901412226137
g101
(g105
S'=\n\xd7\xa3p\x11z@'
p3184
tp3185
Rp3186
tp3187
a(I870
I1000
I500
F0.012766746905165006
g101
(g105
S'H\xe1z\x14\xae/z@'
p3188
tp3189
Rp3190
tp3191
a(I871
I1000
I389
F0.012702913170639181
g101
(g105
S'33333Wz@'
p3192
tp3193
Rp3194
tp3195
a(I872
I1000
I444
F0.012639398604785985
g101
(g105
S'=\n\xd7\xa3pez@'
p3196
tp3197
Rp3198
tp3199
a(I873
I1000
I500
F0.012576201611762055
g101
(g105
S'\x85\xebQ\xb8\x1eyz@'
p3200
tp3201
Rp3202
tp3203
a(I874
I1000
I409
F0.012513320603703245
g101
(g105
S'H\xe1z\x14\xae\x9fz@'
p3204
tp3205
Rp3206
tp3207
a(I875
I1000
I500
F0.012450754000684728
g101
(g105
S'q=\n\xd7\xa3\xc8z@'
p3208
tp3209
Rp3210
tp3211
a(I876
I1000
I355
F0.012388500230681304
g101
(g105
S'\xf6(\\\x8f\xc2\xfdz@'
p3212
tp3213
Rp3214
tp3215
a(I877
I1000
I500
F0.012326557729527898
g101
(g105
S'{\x14\xaeG\xe1\n{@'
p3216
tp3217
Rp3218
tp3219
a(I878
I1000
I311
F0.012264924940880259
g101
(g105
S'{\x14\xaeG\xe1\n{@'
p3220
tp3221
Rp3222
tp3223
a(I879
I1000
I437
F0.012203600316175858
g101
(g105
S'q=\n\xd7\xa3\xecz@'
p3224
tp3225
Rp3226
tp3227
a(I880
I1000
I332
F0.01214258231459498
g101
(g105
S'\xc3\xf5(\\\x8f\xe2z@'
p3228
tp3229
Rp3230
tp3231
a(I881
I1000
I500
F0.012081869403022005
g101
(g105
S'H\xe1z\x14\xae\xc7z@'
p3232
tp3233
Rp3234
tp3235
a(I882
I1000
I441
F0.012021460056006895
g101
(g105
S'H\xe1z\x14\xae\xc7z@'
p3236
tp3237
Rp3238
tp3239
a(I883
I1000
I251
F0.011961352755726861
g101
(g105
S'\n\xd7\xa3p=\xbez@'
p3240
tp3241
Rp3242
tp3243
a(I884
I1000
I253
F0.011901545991948226
g101
(g105
S'fffff\x96z@'
p3244
tp3245
Rp3246
tp3247
a(I885
I1000
I500
F0.011842038261988486
g101
(g105
S'R\xb8\x1e\x85\xebqz@'
p3248
tp3249
Rp3250
tp3251
a(I886
I1000
I358
F0.011782828070678543
g101
(g105
S'H\xe1z\x14\xae\xa3z@'
p3252
tp3253
Rp3254
tp3255
a(I887
I1000
I173
F0.011723913930325151
g101
(g105
S'\xd7\xa3p=\n\xbfz@'
p3256
tp3257
Rp3258
tp3259
a(I888
I1000
I18
F0.011665294360673525
g101
(g105
S'\xd7\xa3p=\n\xabz@'
p3260
tp3261
Rp3262
tp3263
a(I889
I1000
I50
F0.011606967888870157
g101
(g105
S'\x1f\x85\xebQ\xb8bz@'
p3264
tp3265
Rp3266
tp3267
a(I890
I1000
I305
F0.011548933049425806
g101
(g105
S'\x1f\x85\xebQ\xb8\x1az@'
p3268
tp3269
Rp3270
tp3271
a(I891
I1000
I313
F0.011491188384178678
g101
(g105
S'\xecQ\xb8\x1e\x85\xfby@'
p3272
tp3273
Rp3274
tp3275
a(I892
I1000
I458
F0.011433732442257784
g101
(g105
S'=\n\xd7\xa3p\xf5y@'
p3276
tp3277
Rp3278
tp3279
a(I893
I1000
I449
F0.011376563780046495
g101
(g105
S'\x1f\x85\xebQ\xb8\xeey@'
p3280
tp3281
Rp3282
tp3283
a(I894
I1000
I500
F0.011319680961146264
g101
(g105
S'\xc3\xf5(\\\x8f\xe6y@'
p3284
tp3285
Rp3286
tp3287
a(I895
I1000
I500
F0.011263082556340532
g101
(g105
S'\xc3\xf5(\\\x8f\xe6y@'
p3288
tp3289
Rp3290
tp3291
a(I896
I1000
I459
F0.01120676714355883
g101
(g105
S'\xc3\xf5(\\\x8f\xe6y@'
p3292
tp3293
Rp3294
tp3295
a(I897
I1000
I500
F0.011150733307841035
g101
(g105
S'\x00\x00\x00\x00\x00\xe0y@'
p3296
tp3297
Rp3298
tp3299
a(I898
I1000
I364
F0.01109497964130183
g101
(g105
S'\x85\xebQ\xb8\x1e\xe1y@'
p3300
tp3301
Rp3302
tp3303
a(I899
I1000
I269
F0.011039504743095322
g101
(g105
S'\x8f\xc2\xf5(\\\xcby@'
p3304
tp3305
Rp3306
tp3307
a(I900
I1000
I217
F0.010984307219379845
g101
(g105
S')\\\x8f\xc2\xf5\xb0y@'
p3308
tp3309
Rp3310
tp3311
a(I901
I1000
I162
F0.010929385683282946
g101
(g105
S'H\xe1z\x14\xae\x83y@'
p3312
tp3313
Rp3314
tp3315
a(I902
I1000
I164
F0.01087473875486653
g101
(g105
S'\x9a\x99\x99\x99\x99My@'
p3316
tp3317
Rp3318
tp3319
a(I903
I1000
I233
F0.010820365061092197
g101
(g105
S'\n\xd7\xa3p=2y@'
p3320
tp3321
Rp3322
tp3323
a(I904
I1000
I393
F0.010766263235786737
g101
(g105
S'\xecQ\xb8\x1e\x85\x07y@'
p3324
tp3325
Rp3326
tp3327
a(I905
I1000
I500
F0.010712431919607803
g101
(g105
S'fffff\xf6x@'
p3328
tp3329
Rp3330
tp3331
a(I906
I1000
I367
F0.010658869760009763
g101
(g105
S'fffff\xf6x@'
p3332
tp3333
Rp3334
tp3335
a(I907
I1000
I500
F0.010605575411209715
g101
(g105
S'\xb8\x1e\x85\xebQ\xecx@'
p3336
tp3337
Rp3338
tp3339
a(I908
I1000
I500
F0.010552547534153666
g101
(g105
S'\xb8\x1e\x85\xebQ\xecx@'
p3340
tp3341
Rp3342
tp3343
a(I909
I1000
I321
F0.010499784796482899
g101
(g105
S'=\n\xd7\xa3p\xfdx@'
p3344
tp3345
Rp3346
tp3347
a(I910
I1000
I242
F0.010447285872500484
g101
(g105
S'\xcd\xcc\xcc\xcc\xcc\xe0x@'
p3348
tp3349
Rp3350
tp3351
a(I911
I1000
I247
F0.010395049443137981
g101
(g105
S')\\\x8f\xc2\xf5\xd8x@'
p3352
tp3353
Rp3354
tp3355
a(I912
I1000
I276
F0.010343074195922291
g101
(g105
S'fffff\xd6x@'
p3356
tp3357
Rp3358
tp3359
a(I913
I1000
I279
F0.01029135882494268
g101
(g105
S'\n\xd7\xa3p=\xd2x@'
p3360
tp3361
Rp3362
tp3363
a(I914
I1000
I283
F0.010239902030817967
g101
(g105
S'\xe1z\x14\xaeG\xc5x@'
p3364
tp3365
Rp3366
tp3367
a(I915
I1000
I286
F0.010188702520663877
g101
(g105
S'\xc3\xf5(\\\x8f\xa2x@'
p3368
tp3369
Rp3370
tp3371
a(I916
I1000
I265
F0.010137759008060559
g101
(g105
S'q=\n\xd7\xa3\x9cx@'
p3372
tp3373
Rp3374
tp3375
a(I917
I1000
I268
F0.010087070213020256
g101
(g105
S'fffff\x92x@'
p3376
tp3377
Rp3378
tp3379
a(I918
I1000
I253
F0.010036634861955154
g101
(g105
S'\xf6(\\\x8f\xc2mx@'
p3380
tp3381
Rp3382
tp3383
a(I919
I1000
I303
F0.009986451687645378
g101
(g105
S'\\\x8f\xc2\xf5(hx@'
p3384
tp3385
Rp3386
tp3387
a(I920
I1000
I302
F0.009986451687645378
g101
(g105
S'\x1f\x85\xebQ\xb8vx@'
p3388
tp3389
Rp3390
tp3391
a(I921
I1000
I284
F0.009986451687645378
g101
(g105
S'\xd7\xa3p=\nsx@'
p3392
tp3393
Rp3394
tp3395
a(I922
I1000
I258
F0.009986451687645378
g101
(g105
S'=\n\xd7\xa3pYx@'
p3396
tp3397
Rp3398
tp3399
a(I923
I1000
I288
F0.009986451687645378
g101
(g105
S'fffffFx@'
p3400
tp3401
Rp3402
tp3403
a(I924
I1000
I202
F0.009986451687645378
g101
(g105
S'\xcd\xcc\xcc\xcc\xcc0x@'
p3404
tp3405
Rp3406
tp3407
a(I925
I1000
I170
F0.009986451687645378
g101
(g105
S'\x1f\x85\xebQ\xb8\x1ex@'
p3408
tp3409
Rp3410
tp3411
a(I926
I1000
I266
F0.009986451687645378
g101
(g105
S'R\xb8\x1e\x85\xeb\xe9w@'
p3412
tp3413
Rp3414
tp3415
a(I927
I1000
I500
F0.009986451687645378
g101
(g105
S'\x14\xaeG\xe1z\xc4w@'
p3416
tp3417
Rp3418
tp3419
a(I928
I1000
I500
F0.009986451687645378
g101
(g105
S'\x14\xaeG\xe1z\xc4w@'
p3420
tp3421
Rp3422
tp3423
a(I929
I1000
I500
F0.009986451687645378
g101
(g105
S'\xb8\x1e\x85\xebQ\xe4w@'
p3424
tp3425
Rp3426
tp3427
a(I930
I1000
I443
F0.009986451687645378
g101
(g105
S'\x85\xebQ\xb8\x1e\x01x@'
p3428
tp3429
Rp3430
tp3431
a(I931
I1000
I500
F0.009986451687645378
g101
(g105
S'\xe1z\x14\xaeG\x11x@'
p3432
tp3433
Rp3434
tp3435
a(I932
I1000
I324
F0.009986451687645378
g101
(g105
S'\xe1z\x14\xaeG\x11x@'
p3436
tp3437
Rp3438
tp3439
a(I933
I1000
I359
F0.009986451687645378
g101
(g105
S'\xecQ\xb8\x1e\x85\x13x@'
p3440
tp3441
Rp3442
tp3443
a(I934
I1000
I361
F0.009986451687645378
g101
(g105
S'\xb8\x1e\x85\xebQ\x0cx@'
p3444
tp3445
Rp3446
tp3447
a(I935
I1000
I445
F0.009986451687645378
g101
(g105
S'\xaeG\xe1z\x14\xf6w@'
p3448
tp3449
Rp3450
tp3451
a(I936
I1000
I315
F0.009986451687645378
g101
(g105
S'\xe1z\x14\xaeG\xedw@'
p3452
tp3453
Rp3454
tp3455
a(I937
I1000
I322
F0.009986451687645378
g101
(g105
S'H\xe1z\x14\xae\xcfw@'
p3456
tp3457
Rp3458
tp3459
a(I938
I1000
I298
F0.009986451687645378
g101
(g105
S'\xecQ\xb8\x1e\x85\xb7w@'
p3460
tp3461
Rp3462
tp3463
a(I939
I1000
I352
F0.009986451687645378
g101
(g105
S'\xc3\xf5(\\\x8f\xb2w@'
p3464
tp3465
Rp3466
tp3467
a(I940
I1000
I500
F0.009986451687645378
g101
(g105
S'{\x14\xaeG\xe1\x9aw@'
p3468
tp3469
Rp3470
tp3471
a(I941
I1000
I500
F0.009986451687645378
g101
(g105
S'{\x14\xaeG\xe1\x9aw@'
p3472
tp3473
Rp3474
tp3475
a(I942
I1000
I500
F0.009986451687645378
g101
(g105
S'{\x14\xaeG\xe1\x9aw@'
p3476
tp3477
Rp3478
tp3479
a(I943
I1000
I353
F0.009986451687645378
g101
(g105
S'\x8f\xc2\xf5(\\\x9fw@'
p3480
tp3481
Rp3482
tp3483
a(I944
I1000
I427
F0.009986451687645378
g101
(g105
S'\xa4p=\n\xd7\x87w@'
p3484
tp3485
Rp3486
tp3487
a(I945
I1000
I480
F0.009986451687645378
g101
(g105
S'\\\x8f\xc2\xf5(|w@'
p3488
tp3489
Rp3490
tp3491
a(I946
I1000
I500
F0.009986451687645378
g101
(g105
S')\\\x8f\xc2\xf5xw@'
p3492
tp3493
Rp3494
tp3495
a(I947
I1000
I406
F0.009986451687645378
g101
(g105
S')\\\x8f\xc2\xf5xw@'
p3496
tp3497
Rp3498
tp3499
a(I948
I1000
I500
F0.009986451687645378
g101
(g105
S'{\x14\xaeG\xe1nw@'
p3500
tp3501
Rp3502
tp3503
a(I949
I1000
I500
F0.009986451687645378
g101
(g105
S'{\x14\xaeG\xe1nw@'
p3504
tp3505
Rp3506
tp3507
a(I950
I1000
I500
F0.009986451687645378
g101
(g105
S'\x1f\x85\xebQ\xb8~w@'
p3508
tp3509
Rp3510
tp3511
a(I951
I1000
I500
F0.009986451687645378
g101
(g105
S'\x1f\x85\xebQ\xb8~w@'
p3512
tp3513
Rp3514
tp3515
a(I952
I1000
I446
F0.009986451687645378
g101
(g105
S'\x1f\x85\xebQ\xb8~w@'
p3516
tp3517
Rp3518
tp3519
a(I953
I1000
I413
F0.009986451687645378
g101
(g105
S'\xe1z\x14\xaeG\x8dw@'
p3520
tp3521
Rp3522
tp3523
a(I954
I1000
I500
F0.009986451687645378
g101
(g105
S'\x8f\xc2\xf5(\\\x7fw@'
p3524
tp3525
Rp3526
tp3527
a(I955
I1000
I500
F0.009986451687645378
g101
(g105
S'fffff\x86w@'
p3528
tp3529
Rp3530
tp3531
a(I956
I1000
I500
F0.009986451687645378
g101
(g105
S'fffff\x86w@'
p3532
tp3533
Rp3534
tp3535
a(I957
I1000
I396
F0.009986451687645378
g101
(g105
S'fffff\x86w@'
p3536
tp3537
Rp3538
tp3539
a(I958
I1000
I402
F0.009986451687645378
g101
(g105
S'\xf6(\\\x8f\xc2uw@'
p3540
tp3541
Rp3542
tp3543
a(I959
I1000
I420
F0.009986451687645378
g101
(g105
S'33333gw@'
p3544
tp3545
Rp3546
tp3547
a(I960
I1000
I252
F0.009986451687645378
g101
(g105
S'\x1f\x85\xebQ\xb8bw@'
p3548
tp3549
Rp3550
tp3551
a(I961
I1000
I243
F0.009986451687645378
g101
(g105
S'\xd7\xa3p=\n;w@'
p3552
tp3553
Rp3554
tp3555
a(I962
I1000
I500
F0.009986451687645378
g101
(g105
S'R\xb8\x1e\x85\xeb\x11w@'
p3556
tp3557
Rp3558
tp3559
a(I963
I1000
I379
F0.009986451687645378
g101
(g105
S'\xecQ\xb8\x1e\x857w@'
p3560
tp3561
Rp3562
tp3563
a(I964
I1000
I388
F0.009986451687645378
g101
(g105
S'33333Kw@'
p3564
tp3565
Rp3566
tp3567
a(I965
I1000
I347
F0.009986451687645378
g101
(g105
S'q=\n\xd7\xa3`w@'
p3568
tp3569
Rp3570
tp3571
a(I966
I1000
I500
F0.009986451687645378
g101
(g105
S'\x14\xaeG\xe1z`w@'
p3572
tp3573
Rp3574
tp3575
a(I967
I1000
I351
F0.009986451687645378
g101
(g105
S'\xecQ\xb8\x1e\x85ww@'
p3576
tp3577
Rp3578
tp3579
a(I968
I1000
I408
F0.009986451687645378
g101
(g105
S'\n\xd7\xa3p=~w@'
p3580
tp3581
Rp3582
tp3583
a(I969
I1000
I380
F0.009986451687645378
g101
(g105
S'\xecQ\xb8\x1e\x85ow@'
p3584
tp3585
Rp3586
tp3587
a(I970
I1000
I432
F0.009986451687645378
g101
(g105
S'\xb8\x1e\x85\xebQ\\w@'
p3588
tp3589
Rp3590
tp3591
a(I971
I1000
I383
F0.009986451687645378
g101
(g105
S'=\n\xd7\xa3pQw@'
p3592
tp3593
Rp3594
tp3595
a(I972
I1000
I491
F0.009986451687645378
g101
(g105
S'\x14\xaeG\xe1zPw@'
p3596
tp3597
Rp3598
tp3599
a(I973
I1000
I500
F0.009986451687645378
g101
(g105
S'\x00\x00\x00\x00\x00Xw@'
p3600
tp3601
Rp3602
tp3603
a(I974
I1000
I500
F0.009986451687645378
g101
(g105
S'\x00\x00\x00\x00\x00Xw@'
p3604
tp3605
Rp3606
tp3607
a(I975
I1000
I236
F0.009986451687645378
g101
(g105
S'\xc3\xf5(\\\x8ffw@'
p3608
tp3609
Rp3610
tp3611
a(I976
I1000
I248
F0.009986451687645378
g101
(g105
S'\xb8\x1e\x85\xebQ<w@'
p3612
tp3613
Rp3614
tp3615
a(I977
I1000
I408
F0.009986451687645378
g101
(g105
S'33333+w@'
p3616
tp3617
Rp3618
tp3619
a(I978
I1000
I449
F0.009986451687645378
g101
(g105
S'\x14\xaeG\xe1z\x1cw@'
p3620
tp3621
Rp3622
tp3623
a(I979
I1000
I236
F0.009986451687645378
g101
(g105
S'\xc3\xf5(\\\x8f2w@'
p3624
tp3625
Rp3626
tp3627
a(I980
I1000
I187
F0.009986451687645378
g101
(g105
S'fffff\x12w@'
p3628
tp3629
Rp3630
tp3631
a(I981
I1000
I201
F0.009986451687645378
g101
(g105
S'33333\xfbv@'
p3632
tp3633
Rp3634
tp3635
a(I982
I1000
I222
F0.009986451687645378
g101
(g105
S'\x8f\xc2\xf5(\\\xcbv@'
p3636
tp3637
Rp3638
tp3639
a(I983
I1000
I205
F0.009986451687645378
g101
(g105
S'\xb8\x1e\x85\xebQ\xa8v@'
p3640
tp3641
Rp3642
tp3643
a(I984
I1000
I195
F0.009986451687645378
g101
(g105
S')\\\x8f\xc2\xf5\xa0v@'
p3644
tp3645
Rp3646
tp3647
a(I985
I1000
I346
F0.009986451687645378
g101
(g105
S'H\xe1z\x14\xae\x97v@'
p3648
tp3649
Rp3650
tp3651
a(I986
I1000
I480
F0.009986451687645378
g101
(g105
S'\xd7\xa3p=\n\x7fv@'
p3652
tp3653
Rp3654
tp3655
a(I987
I1000
I350
F0.009986451687645378
g101
(g105
S'\xc3\xf5(\\\x8f\x92v@'
p3656
tp3657
Rp3658
tp3659
a(I988
I1000
I287
F0.009986451687645378
g101
(g105
S'{\x14\xaeG\xe1\xaev@'
p3660
tp3661
Rp3662
tp3663
a(I989
I1000
I308
F0.009986451687645378
g101
(g105
S'R\xb8\x1e\x85\xeb\xd9v@'
p3664
tp3665
Rp3666
tp3667
a(I990
I1000
I211
F0.009986451687645378
g101
(g105
S'33333\x03w@'
p3668
tp3669
Rp3670
tp3671
a(I991
I1000
I197
F0.009986451687645378
g101
(g105
S'\\\x8f\xc2\xf5(\xf4v@'
p3672
tp3673
Rp3674
tp3675
a(I992
I1000
I224
F0.009986451687645378
g101
(g105
S'\x9a\x99\x99\x99\x99\xe1v@'
p3676
tp3677
Rp3678
tp3679
a(I993
I1000
I250
F0.009986451687645378
g101
(g105
S'\\\x8f\xc2\xf5(\xbcv@'
p3680
tp3681
Rp3682
tp3683
a(I994
I1000
I281
F0.009986451687645378
g101
(g105
S'\xb8\x1e\x85\xebQ\x9cv@'
p3684
tp3685
Rp3686
tp3687
a(I995
I1000
I377
F0.009986451687645378
g101
(g105
S'\xe1z\x14\xaeGyv@'
p3688
tp3689
Rp3690
tp3691
a(I996
I1000
I220
F0.009986451687645378
g101
(g105
S'\x9a\x99\x99\x99\x99ev@'
p3692
tp3693
Rp3694
tp3695
a(I997
I1000
I175
F0.009986451687645378
g101
(g105
S'\x8f\xc2\xf5(\\?v@'
p3696
tp3697
Rp3698
tp3699
a(I998
I1000
I203
F0.009986451687645378
g101
(g105
S'\x8f\xc2\xf5(\\\x0bv@'
p3700
tp3701
Rp3702
tp3703
a(I999
I1000
I252
F0.009986451687645378
g101
(g105
S'\x9a\x99\x99\x99\x99\xf1u@'
p3704
tp3705
Rp3706
tp3707
a.